Component: ARM Compiler 5.06 update 5 (build 528) Tool: armlink [4d35e2]

==============================================================================

Section Cross References

    stm32f4xx_hal_rcc_ex.o(i.HAL_RCCEx_PeriphCLKConfig) refers to stm32f4xx_hal.o(i.HAL_GetTick) for HAL_GetTick
    stm32f4xx_hal_rcc_ex.o(i.HAL_RCC_DeInit) refers to system_stm32f4xx.o(.data) for SystemCoreClock
    stm32f4xx_hal_flash.o(i.FLASH_SetErrorCode) refers to stm32f4xx_hal_flash.o(.bss) for .bss
    stm32f4xx_hal_flash.o(i.FLASH_WaitForLastOperation) refers to stm32f4xx_hal.o(i.HAL_GetTick) for HAL_GetTick
    stm32f4xx_hal_flash.o(i.FLASH_WaitForLastOperation) refers to stm32f4xx_hal_flash.o(i.FLASH_SetErrorCode) for FLASH_SetErrorCode
    stm32f4xx_hal_flash.o(i.FLASH_WaitForLastOperation) refers to stm32f4xx_hal_flash.o(.bss) for .bss
    stm32f4xx_hal_flash.o(i.HAL_FLASH_GetError) refers to stm32f4xx_hal_flash.o(.bss) for .bss
    stm32f4xx_hal_flash.o(i.HAL_FLASH_IRQHandler) refers to stm32f4xx_hal_flash.o(i.FLASH_SetErrorCode) for FLASH_SetErrorCode
    stm32f4xx_hal_flash.o(i.HAL_FLASH_IRQHandler) refers to stm32f4xx_hal_flash.o(i.HAL_FLASH_OperationErrorCallback) for HAL_FLASH_OperationErrorCallback
    stm32f4xx_hal_flash.o(i.HAL_FLASH_IRQHandler) refers to stm32f4xx_hal_flash.o(i.HAL_FLASH_EndOfOperationCallback) for HAL_FLASH_EndOfOperationCallback
    stm32f4xx_hal_flash.o(i.HAL_FLASH_IRQHandler) refers to stm32f4xx_hal_flash_ex.o(i.FLASH_Erase_Sector) for FLASH_Erase_Sector
    stm32f4xx_hal_flash.o(i.HAL_FLASH_IRQHandler) refers to stm32f4xx_hal_flash_ex.o(i.FLASH_FlushCaches) for FLASH_FlushCaches
    stm32f4xx_hal_flash.o(i.HAL_FLASH_IRQHandler) refers to stm32f4xx_hal_flash.o(.bss) for .bss
    stm32f4xx_hal_flash.o(i.HAL_FLASH_OB_Launch) refers to stm32f4xx_hal_flash.o(i.FLASH_WaitForLastOperation) for FLASH_WaitForLastOperation
    stm32f4xx_hal_flash.o(i.HAL_FLASH_Program) refers to stm32f4xx_hal_flash.o(i.FLASH_WaitForLastOperation) for FLASH_WaitForLastOperation
    stm32f4xx_hal_flash.o(i.HAL_FLASH_Program) refers to stm32f4xx_hal_flash.o(i.FLASH_Program_DoubleWord) for FLASH_Program_DoubleWord
    stm32f4xx_hal_flash.o(i.HAL_FLASH_Program) refers to stm32f4xx_hal_flash.o(i.FLASH_Program_Byte) for FLASH_Program_Byte
    stm32f4xx_hal_flash.o(i.HAL_FLASH_Program) refers to stm32f4xx_hal_flash.o(i.FLASH_Program_HalfWord) for FLASH_Program_HalfWord
    stm32f4xx_hal_flash.o(i.HAL_FLASH_Program) refers to stm32f4xx_hal_flash.o(i.FLASH_Program_Word) for FLASH_Program_Word
    stm32f4xx_hal_flash.o(i.HAL_FLASH_Program) refers to stm32f4xx_hal_flash.o(.bss) for .bss
    stm32f4xx_hal_flash.o(i.HAL_FLASH_Program_IT) refers to stm32f4xx_hal_flash.o(i.FLASH_Program_DoubleWord) for FLASH_Program_DoubleWord
    stm32f4xx_hal_flash.o(i.HAL_FLASH_Program_IT) refers to stm32f4xx_hal_flash.o(i.FLASH_Program_Byte) for FLASH_Program_Byte
    stm32f4xx_hal_flash.o(i.HAL_FLASH_Program_IT) refers to stm32f4xx_hal_flash.o(i.FLASH_Program_HalfWord) for FLASH_Program_HalfWord
    stm32f4xx_hal_flash.o(i.HAL_FLASH_Program_IT) refers to stm32f4xx_hal_flash.o(i.FLASH_Program_Word) for FLASH_Program_Word
    stm32f4xx_hal_flash.o(i.HAL_FLASH_Program_IT) refers to stm32f4xx_hal_flash.o(.bss) for .bss
    stm32f4xx_hal.o(i.HAL_DeInit) refers to stm32f4xx_hal.o(i.HAL_MspDeInit) for HAL_MspDeInit
    stm32f4xx_hal.o(i.HAL_Delay) refers to stm32f4xx_hal.o(i.HAL_GetTick) for HAL_GetTick
    stm32f4xx_hal.o(i.HAL_GetTick) refers to stm32f4xx_hal.o(.data) for .data
    stm32f4xx_hal.o(i.HAL_IncTick) refers to stm32f4xx_hal.o(.data) for .data
    stm32f4xx_hal.o(i.HAL_Init) refers to stm32f4xx_hal_cortex.o(i.HAL_NVIC_SetPriorityGrouping) for HAL_NVIC_SetPriorityGrouping
    stm32f4xx_hal.o(i.HAL_Init) refers to stm32f4xx_hal.o(i.HAL_InitTick) for HAL_InitTick
    stm32f4xx_hal.o(i.HAL_Init) refers to stm32f4xx_hal_msp.o(i.HAL_MspInit) for HAL_MspInit
    stm32f4xx_hal.o(i.HAL_InitTick) refers to stm32f4xx_hal_cortex.o(i.HAL_SYSTICK_Config) for HAL_SYSTICK_Config
    stm32f4xx_hal.o(i.HAL_InitTick) refers to stm32f4xx_hal_cortex.o(i.HAL_NVIC_SetPriority) for HAL_NVIC_SetPriority
    stm32f4xx_hal.o(i.HAL_InitTick) refers to system_stm32f4xx.o(.data) for SystemCoreClock
    stm32f4xx_hal_tim.o(i.HAL_TIM_Base_DeInit) refers to stm32f4xx_hal_msp.o(i.HAL_TIM_Base_MspDeInit) for HAL_TIM_Base_MspDeInit
    stm32f4xx_hal_tim.o(i.HAL_TIM_Base_Init) refers to stm32f4xx_hal_msp.o(i.HAL_TIM_Base_MspInit) for HAL_TIM_Base_MspInit
    stm32f4xx_hal_tim.o(i.HAL_TIM_Base_Init) refers to stm32f4xx_hal_tim.o(i.TIM_Base_SetConfig) for TIM_Base_SetConfig
    stm32f4xx_hal_tim.o(i.HAL_TIM_Base_Start_DMA) refers to stm32f4xx_hal_dma.o(i.HAL_DMA_Start_IT) for HAL_DMA_Start_IT
    stm32f4xx_hal_tim.o(i.HAL_TIM_Base_Start_DMA) refers to stm32f4xx_hal_tim.o(i.TIM_DMAPeriodElapsedCplt) for TIM_DMAPeriodElapsedCplt
    stm32f4xx_hal_tim.o(i.HAL_TIM_Base_Start_DMA) refers to stm32f4xx_hal_tim.o(i.TIM_DMAError) for TIM_DMAError
    stm32f4xx_hal_tim.o(i.HAL_TIM_ConfigClockSource) refers to stm32f4xx_hal_tim.o(i.TIM_ETR_SetConfig) for TIM_ETR_SetConfig
    stm32f4xx_hal_tim.o(i.HAL_TIM_ConfigClockSource) refers to stm32f4xx_hal_tim.o(i.TIM_TI1_ConfigInputStage) for TIM_TI1_ConfigInputStage
    stm32f4xx_hal_tim.o(i.HAL_TIM_ConfigClockSource) refers to stm32f4xx_hal_tim.o(i.TIM_TI2_ConfigInputStage) for TIM_TI2_ConfigInputStage
    stm32f4xx_hal_tim.o(i.HAL_TIM_ConfigClockSource) refers to stm32f4xx_hal_tim.o(i.TIM_ITRx_SetConfig) for TIM_ITRx_SetConfig
    stm32f4xx_hal_tim.o(i.HAL_TIM_ConfigOCrefClear) refers to stm32f4xx_hal_tim.o(i.TIM_ETR_SetConfig) for TIM_ETR_SetConfig
    stm32f4xx_hal_tim.o(i.HAL_TIM_DMABurst_ReadStart) refers to stm32f4xx_hal_dma.o(i.HAL_DMA_Start_IT) for HAL_DMA_Start_IT
    stm32f4xx_hal_tim.o(i.HAL_TIM_DMABurst_ReadStart) refers to stm32f4xx_hal_tim.o(i.TIM_DMAError) for TIM_DMAError
    stm32f4xx_hal_tim.o(i.HAL_TIM_DMABurst_ReadStart) refers to stm32f4xx_hal_tim.o(i.TIM_DMACaptureCplt) for TIM_DMACaptureCplt
    stm32f4xx_hal_tim.o(i.HAL_TIM_DMABurst_ReadStart) refers to stm32f4xx_hal_tim.o(i.TIM_DMAPeriodElapsedCplt) for TIM_DMAPeriodElapsedCplt
    stm32f4xx_hal_tim.o(i.HAL_TIM_DMABurst_ReadStart) refers to stm32f4xx_hal_tim_ex.o(i.TIMEx_DMACommutationCplt) for TIMEx_DMACommutationCplt
    stm32f4xx_hal_tim.o(i.HAL_TIM_DMABurst_ReadStart) refers to stm32f4xx_hal_tim.o(i.TIM_DMATriggerCplt) for TIM_DMATriggerCplt
    stm32f4xx_hal_tim.o(i.HAL_TIM_DMABurst_ReadStop) refers to stm32f4xx_hal_dma.o(i.HAL_DMA_Abort) for HAL_DMA_Abort
    stm32f4xx_hal_tim.o(i.HAL_TIM_DMABurst_WriteStart) refers to stm32f4xx_hal_dma.o(i.HAL_DMA_Start_IT) for HAL_DMA_Start_IT
    stm32f4xx_hal_tim.o(i.HAL_TIM_DMABurst_WriteStart) refers to stm32f4xx_hal_tim.o(i.TIM_DMAError) for TIM_DMAError
    stm32f4xx_hal_tim.o(i.HAL_TIM_DMABurst_WriteStart) refers to stm32f4xx_hal_tim.o(i.TIM_DMADelayPulseCplt) for TIM_DMADelayPulseCplt
    stm32f4xx_hal_tim.o(i.HAL_TIM_DMABurst_WriteStart) refers to stm32f4xx_hal_tim.o(i.TIM_DMAPeriodElapsedCplt) for TIM_DMAPeriodElapsedCplt
    stm32f4xx_hal_tim.o(i.HAL_TIM_DMABurst_WriteStart) refers to stm32f4xx_hal_tim_ex.o(i.TIMEx_DMACommutationCplt) for TIMEx_DMACommutationCplt
    stm32f4xx_hal_tim.o(i.HAL_TIM_DMABurst_WriteStart) refers to stm32f4xx_hal_tim.o(i.TIM_DMATriggerCplt) for TIM_DMATriggerCplt
    stm32f4xx_hal_tim.o(i.HAL_TIM_DMABurst_WriteStop) refers to stm32f4xx_hal_dma.o(i.HAL_DMA_Abort) for HAL_DMA_Abort
    stm32f4xx_hal_tim.o(i.HAL_TIM_Encoder_DeInit) refers to stm32f4xx_hal_tim.o(i.HAL_TIM_Encoder_MspDeInit) for HAL_TIM_Encoder_MspDeInit
    stm32f4xx_hal_tim.o(i.HAL_TIM_Encoder_Init) refers to stm32f4xx_hal_tim.o(i.HAL_TIM_Encoder_MspInit) for HAL_TIM_Encoder_MspInit
    stm32f4xx_hal_tim.o(i.HAL_TIM_Encoder_Init) refers to stm32f4xx_hal_tim.o(i.TIM_Base_SetConfig) for TIM_Base_SetConfig
    stm32f4xx_hal_tim.o(i.HAL_TIM_Encoder_Start) refers to stm32f4xx_hal_tim.o(i.TIM_CCxChannelCmd) for TIM_CCxChannelCmd
    stm32f4xx_hal_tim.o(i.HAL_TIM_Encoder_Start_DMA) refers to stm32f4xx_hal_dma.o(i.HAL_DMA_Start_IT) for HAL_DMA_Start_IT
    stm32f4xx_hal_tim.o(i.HAL_TIM_Encoder_Start_DMA) refers to stm32f4xx_hal_tim.o(i.TIM_CCxChannelCmd) for TIM_CCxChannelCmd
    stm32f4xx_hal_tim.o(i.HAL_TIM_Encoder_Start_DMA) refers to stm32f4xx_hal_tim.o(i.TIM_DMACaptureCplt) for TIM_DMACaptureCplt
    stm32f4xx_hal_tim.o(i.HAL_TIM_Encoder_Start_DMA) refers to stm32f4xx_hal_tim.o(i.TIM_DMAError) for TIM_DMAError
    stm32f4xx_hal_tim.o(i.HAL_TIM_Encoder_Start_IT) refers to stm32f4xx_hal_tim.o(i.TIM_CCxChannelCmd) for TIM_CCxChannelCmd
    stm32f4xx_hal_tim.o(i.HAL_TIM_Encoder_Stop) refers to stm32f4xx_hal_tim.o(i.TIM_CCxChannelCmd) for TIM_CCxChannelCmd
    stm32f4xx_hal_tim.o(i.HAL_TIM_Encoder_Stop_DMA) refers to stm32f4xx_hal_tim.o(i.TIM_CCxChannelCmd) for TIM_CCxChannelCmd
    stm32f4xx_hal_tim.o(i.HAL_TIM_Encoder_Stop_IT) refers to stm32f4xx_hal_tim.o(i.TIM_CCxChannelCmd) for TIM_CCxChannelCmd
    stm32f4xx_hal_tim.o(i.HAL_TIM_IC_ConfigChannel) refers to stm32f4xx_hal_tim.o(i.TIM_TI1_SetConfig) for TIM_TI1_SetConfig
    stm32f4xx_hal_tim.o(i.HAL_TIM_IC_ConfigChannel) refers to stm32f4xx_hal_tim.o(i.TIM_TI2_SetConfig) for TIM_TI2_SetConfig
    stm32f4xx_hal_tim.o(i.HAL_TIM_IC_DeInit) refers to stm32f4xx_hal_tim.o(i.HAL_TIM_IC_MspDeInit) for HAL_TIM_IC_MspDeInit
    stm32f4xx_hal_tim.o(i.HAL_TIM_IC_Init) refers to stm32f4xx_hal_tim.o(i.HAL_TIM_IC_MspInit) for HAL_TIM_IC_MspInit
    stm32f4xx_hal_tim.o(i.HAL_TIM_IC_Init) refers to stm32f4xx_hal_tim.o(i.TIM_Base_SetConfig) for TIM_Base_SetConfig
    stm32f4xx_hal_tim.o(i.HAL_TIM_IC_Start) refers to stm32f4xx_hal_tim.o(i.TIM_CCxChannelCmd) for TIM_CCxChannelCmd
    stm32f4xx_hal_tim.o(i.HAL_TIM_IC_Start_DMA) refers to stm32f4xx_hal_dma.o(i.HAL_DMA_Start_IT) for HAL_DMA_Start_IT
    stm32f4xx_hal_tim.o(i.HAL_TIM_IC_Start_DMA) refers to stm32f4xx_hal_tim.o(i.TIM_CCxChannelCmd) for TIM_CCxChannelCmd
    stm32f4xx_hal_tim.o(i.HAL_TIM_IC_Start_DMA) refers to stm32f4xx_hal_tim.o(i.TIM_DMACaptureCplt) for TIM_DMACaptureCplt
    stm32f4xx_hal_tim.o(i.HAL_TIM_IC_Start_DMA) refers to stm32f4xx_hal_tim.o(i.TIM_DMAError) for TIM_DMAError
    stm32f4xx_hal_tim.o(i.HAL_TIM_IC_Start_IT) refers to stm32f4xx_hal_tim.o(i.TIM_CCxChannelCmd) for TIM_CCxChannelCmd
    stm32f4xx_hal_tim.o(i.HAL_TIM_IC_Stop) refers to stm32f4xx_hal_tim.o(i.TIM_CCxChannelCmd) for TIM_CCxChannelCmd
    stm32f4xx_hal_tim.o(i.HAL_TIM_IC_Stop_DMA) refers to stm32f4xx_hal_tim.o(i.TIM_CCxChannelCmd) for TIM_CCxChannelCmd
    stm32f4xx_hal_tim.o(i.HAL_TIM_IC_Stop_IT) refers to stm32f4xx_hal_tim.o(i.TIM_CCxChannelCmd) for TIM_CCxChannelCmd
    stm32f4xx_hal_tim.o(i.HAL_TIM_IRQHandler) refers to stm32f4xx_hal_tim.o(i.HAL_TIM_IC_CaptureCallback) for HAL_TIM_IC_CaptureCallback
    stm32f4xx_hal_tim.o(i.HAL_TIM_IRQHandler) refers to stm32f4xx_hal_tim.o(i.HAL_TIM_OC_DelayElapsedCallback) for HAL_TIM_OC_DelayElapsedCallback
    stm32f4xx_hal_tim.o(i.HAL_TIM_IRQHandler) refers to stm32f4xx_hal_tim.o(i.HAL_TIM_PWM_PulseFinishedCallback) for HAL_TIM_PWM_PulseFinishedCallback
    stm32f4xx_hal_tim.o(i.HAL_TIM_IRQHandler) refers to stm32f4xx_hal_tim.o(i.HAL_TIM_PeriodElapsedCallback) for HAL_TIM_PeriodElapsedCallback
    stm32f4xx_hal_tim.o(i.HAL_TIM_IRQHandler) refers to stm32f4xx_hal_tim_ex.o(i.HAL_TIMEx_BreakCallback) for HAL_TIMEx_BreakCallback
    stm32f4xx_hal_tim.o(i.HAL_TIM_IRQHandler) refers to stm32f4xx_hal_tim.o(i.HAL_TIM_TriggerCallback) for HAL_TIM_TriggerCallback
    stm32f4xx_hal_tim.o(i.HAL_TIM_IRQHandler) refers to stm32f4xx_hal_tim_ex.o(i.HAL_TIMEx_CommutationCallback) for HAL_TIMEx_CommutationCallback
    stm32f4xx_hal_tim.o(i.HAL_TIM_OC_ConfigChannel) refers to stm32f4xx_hal_tim.o(i.TIM_OC1_SetConfig) for TIM_OC1_SetConfig
    stm32f4xx_hal_tim.o(i.HAL_TIM_OC_ConfigChannel) refers to stm32f4xx_hal_tim.o(i.TIM_OC2_SetConfig) for TIM_OC2_SetConfig
    stm32f4xx_hal_tim.o(i.HAL_TIM_OC_ConfigChannel) refers to stm32f4xx_hal_tim.o(i.TIM_OC3_SetConfig) for TIM_OC3_SetConfig
    stm32f4xx_hal_tim.o(i.HAL_TIM_OC_ConfigChannel) refers to stm32f4xx_hal_tim.o(i.TIM_OC4_SetConfig) for TIM_OC4_SetConfig
    stm32f4xx_hal_tim.o(i.HAL_TIM_OC_DeInit) refers to stm32f4xx_hal_tim.o(i.HAL_TIM_OC_MspDeInit) for HAL_TIM_OC_MspDeInit
    stm32f4xx_hal_tim.o(i.HAL_TIM_OC_Init) refers to stm32f4xx_hal_tim.o(i.HAL_TIM_OC_MspInit) for HAL_TIM_OC_MspInit
    stm32f4xx_hal_tim.o(i.HAL_TIM_OC_Init) refers to stm32f4xx_hal_tim.o(i.TIM_Base_SetConfig) for TIM_Base_SetConfig
    stm32f4xx_hal_tim.o(i.HAL_TIM_OC_Start) refers to stm32f4xx_hal_tim.o(i.TIM_CCxChannelCmd) for TIM_CCxChannelCmd
    stm32f4xx_hal_tim.o(i.HAL_TIM_OC_Start_DMA) refers to stm32f4xx_hal_dma.o(i.HAL_DMA_Start_IT) for HAL_DMA_Start_IT
    stm32f4xx_hal_tim.o(i.HAL_TIM_OC_Start_DMA) refers to stm32f4xx_hal_tim.o(i.TIM_CCxChannelCmd) for TIM_CCxChannelCmd
    stm32f4xx_hal_tim.o(i.HAL_TIM_OC_Start_DMA) refers to stm32f4xx_hal_tim.o(i.TIM_DMADelayPulseCplt) for TIM_DMADelayPulseCplt
    stm32f4xx_hal_tim.o(i.HAL_TIM_OC_Start_DMA) refers to stm32f4xx_hal_tim.o(i.TIM_DMAError) for TIM_DMAError
    stm32f4xx_hal_tim.o(i.HAL_TIM_OC_Start_IT) refers to stm32f4xx_hal_tim.o(i.TIM_CCxChannelCmd) for TIM_CCxChannelCmd
    stm32f4xx_hal_tim.o(i.HAL_TIM_OC_Stop) refers to stm32f4xx_hal_tim.o(i.TIM_CCxChannelCmd) for TIM_CCxChannelCmd
    stm32f4xx_hal_tim.o(i.HAL_TIM_OC_Stop_DMA) refers to stm32f4xx_hal_tim.o(i.TIM_CCxChannelCmd) for TIM_CCxChannelCmd
    stm32f4xx_hal_tim.o(i.HAL_TIM_OC_Stop_IT) refers to stm32f4xx_hal_tim.o(i.TIM_CCxChannelCmd) for TIM_CCxChannelCmd
    stm32f4xx_hal_tim.o(i.HAL_TIM_OnePulse_ConfigChannel) refers to stm32f4xx_hal_tim.o(i.TIM_OC1_SetConfig) for TIM_OC1_SetConfig
    stm32f4xx_hal_tim.o(i.HAL_TIM_OnePulse_ConfigChannel) refers to stm32f4xx_hal_tim.o(i.TIM_OC2_SetConfig) for TIM_OC2_SetConfig
    stm32f4xx_hal_tim.o(i.HAL_TIM_OnePulse_ConfigChannel) refers to stm32f4xx_hal_tim.o(i.TIM_TI1_SetConfig) for TIM_TI1_SetConfig
    stm32f4xx_hal_tim.o(i.HAL_TIM_OnePulse_ConfigChannel) refers to stm32f4xx_hal_tim.o(i.TIM_TI2_SetConfig) for TIM_TI2_SetConfig
    stm32f4xx_hal_tim.o(i.HAL_TIM_OnePulse_DeInit) refers to stm32f4xx_hal_tim.o(i.HAL_TIM_OnePulse_MspDeInit) for HAL_TIM_OnePulse_MspDeInit
    stm32f4xx_hal_tim.o(i.HAL_TIM_OnePulse_Init) refers to stm32f4xx_hal_tim.o(i.HAL_TIM_OnePulse_MspInit) for HAL_TIM_OnePulse_MspInit
    stm32f4xx_hal_tim.o(i.HAL_TIM_OnePulse_Init) refers to stm32f4xx_hal_tim.o(i.TIM_Base_SetConfig) for TIM_Base_SetConfig
    stm32f4xx_hal_tim.o(i.HAL_TIM_OnePulse_Start) refers to stm32f4xx_hal_tim.o(i.TIM_CCxChannelCmd) for TIM_CCxChannelCmd
    stm32f4xx_hal_tim.o(i.HAL_TIM_OnePulse_Start_IT) refers to stm32f4xx_hal_tim.o(i.TIM_CCxChannelCmd) for TIM_CCxChannelCmd
    stm32f4xx_hal_tim.o(i.HAL_TIM_OnePulse_Stop) refers to stm32f4xx_hal_tim.o(i.TIM_CCxChannelCmd) for TIM_CCxChannelCmd
    stm32f4xx_hal_tim.o(i.HAL_TIM_OnePulse_Stop_IT) refers to stm32f4xx_hal_tim.o(i.TIM_CCxChannelCmd) for TIM_CCxChannelCmd
    stm32f4xx_hal_tim.o(i.HAL_TIM_PWM_ConfigChannel) refers to stm32f4xx_hal_tim.o(i.TIM_OC1_SetConfig) for TIM_OC1_SetConfig
    stm32f4xx_hal_tim.o(i.HAL_TIM_PWM_ConfigChannel) refers to stm32f4xx_hal_tim.o(i.TIM_OC2_SetConfig) for TIM_OC2_SetConfig
    stm32f4xx_hal_tim.o(i.HAL_TIM_PWM_ConfigChannel) refers to stm32f4xx_hal_tim.o(i.TIM_OC3_SetConfig) for TIM_OC3_SetConfig
    stm32f4xx_hal_tim.o(i.HAL_TIM_PWM_ConfigChannel) refers to stm32f4xx_hal_tim.o(i.TIM_OC4_SetConfig) for TIM_OC4_SetConfig
    stm32f4xx_hal_tim.o(i.HAL_TIM_PWM_DeInit) refers to stm32f4xx_hal_tim.o(i.HAL_TIM_PWM_MspDeInit) for HAL_TIM_PWM_MspDeInit
    stm32f4xx_hal_tim.o(i.HAL_TIM_PWM_Init) refers to stm32f4xx_hal_tim.o(i.HAL_TIM_PWM_MspInit) for HAL_TIM_PWM_MspInit
    stm32f4xx_hal_tim.o(i.HAL_TIM_PWM_Init) refers to stm32f4xx_hal_tim.o(i.TIM_Base_SetConfig) for TIM_Base_SetConfig
    stm32f4xx_hal_tim.o(i.HAL_TIM_PWM_Start) refers to stm32f4xx_hal_tim.o(i.TIM_CCxChannelCmd) for TIM_CCxChannelCmd
    stm32f4xx_hal_tim.o(i.HAL_TIM_PWM_Start_DMA) refers to stm32f4xx_hal_dma.o(i.HAL_DMA_Start_IT) for HAL_DMA_Start_IT
    stm32f4xx_hal_tim.o(i.HAL_TIM_PWM_Start_DMA) refers to stm32f4xx_hal_tim.o(i.TIM_CCxChannelCmd) for TIM_CCxChannelCmd
    stm32f4xx_hal_tim.o(i.HAL_TIM_PWM_Start_DMA) refers to stm32f4xx_hal_tim.o(i.TIM_DMADelayPulseCplt) for TIM_DMADelayPulseCplt
    stm32f4xx_hal_tim.o(i.HAL_TIM_PWM_Start_DMA) refers to stm32f4xx_hal_tim.o(i.TIM_DMAError) for TIM_DMAError
    stm32f4xx_hal_tim.o(i.HAL_TIM_PWM_Start_IT) refers to stm32f4xx_hal_tim.o(i.TIM_CCxChannelCmd) for TIM_CCxChannelCmd
    stm32f4xx_hal_tim.o(i.HAL_TIM_PWM_Stop) refers to stm32f4xx_hal_tim.o(i.TIM_CCxChannelCmd) for TIM_CCxChannelCmd
    stm32f4xx_hal_tim.o(i.HAL_TIM_PWM_Stop_DMA) refers to stm32f4xx_hal_tim.o(i.TIM_CCxChannelCmd) for TIM_CCxChannelCmd
    stm32f4xx_hal_tim.o(i.HAL_TIM_PWM_Stop_IT) refers to stm32f4xx_hal_tim.o(i.TIM_CCxChannelCmd) for TIM_CCxChannelCmd
    stm32f4xx_hal_tim.o(i.HAL_TIM_SlaveConfigSynchronization) refers to stm32f4xx_hal_tim.o(i.TIM_SlaveTimer_SetConfig) for TIM_SlaveTimer_SetConfig
    stm32f4xx_hal_tim.o(i.HAL_TIM_SlaveConfigSynchronization_IT) refers to stm32f4xx_hal_tim.o(i.TIM_SlaveTimer_SetConfig) for TIM_SlaveTimer_SetConfig
    stm32f4xx_hal_tim.o(i.TIM_DMACaptureCplt) refers to stm32f4xx_hal_tim.o(i.HAL_TIM_IC_CaptureCallback) for HAL_TIM_IC_CaptureCallback
    stm32f4xx_hal_tim.o(i.TIM_DMADelayPulseCplt) refers to stm32f4xx_hal_tim.o(i.HAL_TIM_PWM_PulseFinishedCallback) for HAL_TIM_PWM_PulseFinishedCallback
    stm32f4xx_hal_tim.o(i.TIM_DMAError) refers to stm32f4xx_hal_tim.o(i.HAL_TIM_ErrorCallback) for HAL_TIM_ErrorCallback
    stm32f4xx_hal_tim.o(i.TIM_DMAPeriodElapsedCplt) refers to stm32f4xx_hal_tim.o(i.HAL_TIM_PeriodElapsedCallback) for HAL_TIM_PeriodElapsedCallback
    stm32f4xx_hal_tim.o(i.TIM_DMATriggerCplt) refers to stm32f4xx_hal_tim.o(i.HAL_TIM_TriggerCallback) for HAL_TIM_TriggerCallback
    stm32f4xx_hal_tim.o(i.TIM_SlaveTimer_SetConfig) refers to stm32f4xx_hal_tim.o(i.TIM_ETR_SetConfig) for TIM_ETR_SetConfig
    stm32f4xx_hal_tim.o(i.TIM_SlaveTimer_SetConfig) refers to stm32f4xx_hal_tim.o(i.TIM_TI1_ConfigInputStage) for TIM_TI1_ConfigInputStage
    stm32f4xx_hal_tim.o(i.TIM_SlaveTimer_SetConfig) refers to stm32f4xx_hal_tim.o(i.TIM_TI2_ConfigInputStage) for TIM_TI2_ConfigInputStage
    stm32f4xx_hal_rcc.o(i.HAL_RCC_ClockConfig) refers to stm32f4xx_hal.o(i.HAL_GetTick) for HAL_GetTick
    stm32f4xx_hal_rcc.o(i.HAL_RCC_ClockConfig) refers to stm32f4xx_hal_rcc.o(i.HAL_RCC_GetSysClockFreq) for HAL_RCC_GetSysClockFreq
    stm32f4xx_hal_rcc.o(i.HAL_RCC_ClockConfig) refers to stm32f4xx_hal.o(i.HAL_InitTick) for HAL_InitTick
    stm32f4xx_hal_rcc.o(i.HAL_RCC_ClockConfig) refers to system_stm32f4xx.o(.constdata) for AHBPrescTable
    stm32f4xx_hal_rcc.o(i.HAL_RCC_ClockConfig) refers to system_stm32f4xx.o(.data) for SystemCoreClock
    stm32f4xx_hal_rcc.o(i.HAL_RCC_GetHCLKFreq) refers to system_stm32f4xx.o(.data) for SystemCoreClock
    stm32f4xx_hal_rcc.o(i.HAL_RCC_GetPCLK1Freq) refers to system_stm32f4xx.o(.data) for SystemCoreClock
    stm32f4xx_hal_rcc.o(i.HAL_RCC_GetPCLK1Freq) refers to system_stm32f4xx.o(.constdata) for APBPrescTable
    stm32f4xx_hal_rcc.o(i.HAL_RCC_GetPCLK2Freq) refers to system_stm32f4xx.o(.data) for SystemCoreClock
    stm32f4xx_hal_rcc.o(i.HAL_RCC_GetPCLK2Freq) refers to system_stm32f4xx.o(.constdata) for APBPrescTable
    stm32f4xx_hal_rcc.o(i.HAL_RCC_MCOConfig) refers to stm32f4xx_hal_gpio.o(i.HAL_GPIO_Init) for HAL_GPIO_Init
    stm32f4xx_hal_rcc.o(i.HAL_RCC_NMI_IRQHandler) refers to stm32f4xx_hal_rcc.o(i.HAL_RCC_CSSCallback) for HAL_RCC_CSSCallback
    stm32f4xx_hal_rcc.o(i.HAL_RCC_OscConfig) refers to stm32f4xx_hal.o(i.HAL_GetTick) for HAL_GetTick
    stm32f4xx_hal_adc.o(i.ADC_DMAConvCplt) refers to stm32f4xx_hal_adc.o(i.HAL_ADC_ConvCpltCallback) for HAL_ADC_ConvCpltCallback
    stm32f4xx_hal_adc.o(i.ADC_DMAError) refers to stm32f4xx_hal_adc.o(i.HAL_ADC_ErrorCallback) for HAL_ADC_ErrorCallback
    stm32f4xx_hal_adc.o(i.ADC_DMAHalfConvCplt) refers to stm32f4xx_hal_adc.o(i.HAL_ADC_ConvHalfCpltCallback) for HAL_ADC_ConvHalfCpltCallback
    stm32f4xx_hal_adc.o(i.HAL_ADC_ConfigChannel) refers to system_stm32f4xx.o(.data) for SystemCoreClock
    stm32f4xx_hal_adc.o(i.HAL_ADC_DeInit) refers to stm32f4xx_hal_msp.o(i.HAL_ADC_MspDeInit) for HAL_ADC_MspDeInit
    stm32f4xx_hal_adc.o(i.HAL_ADC_IRQHandler) refers to stm32f4xx_hal_adc.o(i.HAL_ADC_ConvCpltCallback) for HAL_ADC_ConvCpltCallback
    stm32f4xx_hal_adc.o(i.HAL_ADC_IRQHandler) refers to stm32f4xx_hal_adc_ex.o(i.HAL_ADCEx_InjectedConvCpltCallback) for HAL_ADCEx_InjectedConvCpltCallback
    stm32f4xx_hal_adc.o(i.HAL_ADC_IRQHandler) refers to stm32f4xx_hal_adc.o(i.HAL_ADC_LevelOutOfWindowCallback) for HAL_ADC_LevelOutOfWindowCallback
    stm32f4xx_hal_adc.o(i.HAL_ADC_IRQHandler) refers to stm32f4xx_hal_adc.o(i.HAL_ADC_ErrorCallback) for HAL_ADC_ErrorCallback
    stm32f4xx_hal_adc.o(i.HAL_ADC_Init) refers to stm32f4xx_hal_msp.o(i.HAL_ADC_MspInit) for HAL_ADC_MspInit
    stm32f4xx_hal_adc.o(i.HAL_ADC_Init) refers to stm32f4xx_hal_adc.o(i.ADC_Init) for ADC_Init
    stm32f4xx_hal_adc.o(i.HAL_ADC_PollForConversion) refers to stm32f4xx_hal.o(i.HAL_GetTick) for HAL_GetTick
    stm32f4xx_hal_adc.o(i.HAL_ADC_PollForEvent) refers to stm32f4xx_hal.o(i.HAL_GetTick) for HAL_GetTick
    stm32f4xx_hal_adc.o(i.HAL_ADC_Start) refers to system_stm32f4xx.o(.data) for SystemCoreClock
    stm32f4xx_hal_adc.o(i.HAL_ADC_Start_DMA) refers to stm32f4xx_hal_dma.o(i.HAL_DMA_Start_IT) for HAL_DMA_Start_IT
    stm32f4xx_hal_adc.o(i.HAL_ADC_Start_DMA) refers to system_stm32f4xx.o(.data) for SystemCoreClock
    stm32f4xx_hal_adc.o(i.HAL_ADC_Start_DMA) refers to stm32f4xx_hal_adc.o(i.ADC_DMAConvCplt) for ADC_DMAConvCplt
    stm32f4xx_hal_adc.o(i.HAL_ADC_Start_DMA) refers to stm32f4xx_hal_adc.o(i.ADC_DMAHalfConvCplt) for ADC_DMAHalfConvCplt
    stm32f4xx_hal_adc.o(i.HAL_ADC_Start_DMA) refers to stm32f4xx_hal_adc.o(i.ADC_DMAError) for ADC_DMAError
    stm32f4xx_hal_adc.o(i.HAL_ADC_Start_IT) refers to system_stm32f4xx.o(.data) for SystemCoreClock
    stm32f4xx_hal_adc.o(i.HAL_ADC_Stop_DMA) refers to stm32f4xx_hal_dma.o(i.HAL_DMA_Abort) for HAL_DMA_Abort
    stm32f4xx_hal_adc_ex.o(i.ADC_MultiModeDMAConvCplt) refers to stm32f4xx_hal_adc.o(i.HAL_ADC_ConvCpltCallback) for HAL_ADC_ConvCpltCallback
    stm32f4xx_hal_adc_ex.o(i.ADC_MultiModeDMAError) refers to stm32f4xx_hal_adc.o(i.HAL_ADC_ErrorCallback) for HAL_ADC_ErrorCallback
    stm32f4xx_hal_adc_ex.o(i.ADC_MultiModeDMAHalfConvCplt) refers to stm32f4xx_hal_adc.o(i.HAL_ADC_ConvHalfCpltCallback) for HAL_ADC_ConvHalfCpltCallback
    stm32f4xx_hal_adc_ex.o(i.HAL_ADCEx_InjectedPollForConversion) refers to stm32f4xx_hal.o(i.HAL_GetTick) for HAL_GetTick
    stm32f4xx_hal_adc_ex.o(i.HAL_ADCEx_InjectedStart) refers to system_stm32f4xx.o(.data) for SystemCoreClock
    stm32f4xx_hal_adc_ex.o(i.HAL_ADCEx_InjectedStart_IT) refers to system_stm32f4xx.o(.data) for SystemCoreClock
    stm32f4xx_hal_adc_ex.o(i.HAL_ADCEx_MultiModeStart_DMA) refers to stm32f4xx_hal_dma.o(i.HAL_DMA_Start_IT) for HAL_DMA_Start_IT
    stm32f4xx_hal_adc_ex.o(i.HAL_ADCEx_MultiModeStart_DMA) refers to system_stm32f4xx.o(.data) for SystemCoreClock
    stm32f4xx_hal_adc_ex.o(i.HAL_ADCEx_MultiModeStart_DMA) refers to stm32f4xx_hal_adc_ex.o(i.ADC_MultiModeDMAConvCplt) for ADC_MultiModeDMAConvCplt
    stm32f4xx_hal_adc_ex.o(i.HAL_ADCEx_MultiModeStart_DMA) refers to stm32f4xx_hal_adc_ex.o(i.ADC_MultiModeDMAHalfConvCplt) for ADC_MultiModeDMAHalfConvCplt
    stm32f4xx_hal_adc_ex.o(i.HAL_ADCEx_MultiModeStart_DMA) refers to stm32f4xx_hal_adc_ex.o(i.ADC_MultiModeDMAError) for ADC_MultiModeDMAError
    stm32f4xx_hal_adc_ex.o(i.HAL_ADCEx_MultiModeStop_DMA) refers to stm32f4xx_hal_dma.o(i.HAL_DMA_Abort) for HAL_DMA_Abort
    stm32f4xx_hal_tim_ex.o(i.HAL_TIMEx_ConfigCommutationEvent_DMA) refers to stm32f4xx_hal_tim_ex.o(i.TIMEx_DMACommutationCplt) for TIMEx_DMACommutationCplt
    stm32f4xx_hal_tim_ex.o(i.HAL_TIMEx_ConfigCommutationEvent_DMA) refers to stm32f4xx_hal_tim.o(i.TIM_DMAError) for TIM_DMAError
    stm32f4xx_hal_tim_ex.o(i.HAL_TIMEx_HallSensor_DeInit) refers to stm32f4xx_hal_tim_ex.o(i.HAL_TIMEx_HallSensor_MspDeInit) for HAL_TIMEx_HallSensor_MspDeInit
    stm32f4xx_hal_tim_ex.o(i.HAL_TIMEx_HallSensor_Init) refers to stm32f4xx_hal_tim_ex.o(i.HAL_TIMEx_HallSensor_MspInit) for HAL_TIMEx_HallSensor_MspInit
    stm32f4xx_hal_tim_ex.o(i.HAL_TIMEx_HallSensor_Init) refers to stm32f4xx_hal_tim.o(i.TIM_Base_SetConfig) for TIM_Base_SetConfig
    stm32f4xx_hal_tim_ex.o(i.HAL_TIMEx_HallSensor_Init) refers to stm32f4xx_hal_tim.o(i.TIM_TI1_SetConfig) for TIM_TI1_SetConfig
    stm32f4xx_hal_tim_ex.o(i.HAL_TIMEx_HallSensor_Init) refers to stm32f4xx_hal_tim.o(i.TIM_OC2_SetConfig) for TIM_OC2_SetConfig
    stm32f4xx_hal_tim_ex.o(i.HAL_TIMEx_HallSensor_Start) refers to stm32f4xx_hal_tim.o(i.TIM_CCxChannelCmd) for TIM_CCxChannelCmd
    stm32f4xx_hal_tim_ex.o(i.HAL_TIMEx_HallSensor_Start_DMA) refers to stm32f4xx_hal_tim.o(i.TIM_CCxChannelCmd) for TIM_CCxChannelCmd
    stm32f4xx_hal_tim_ex.o(i.HAL_TIMEx_HallSensor_Start_DMA) refers to stm32f4xx_hal_dma.o(i.HAL_DMA_Start_IT) for HAL_DMA_Start_IT
    stm32f4xx_hal_tim_ex.o(i.HAL_TIMEx_HallSensor_Start_DMA) refers to stm32f4xx_hal_tim.o(i.TIM_DMACaptureCplt) for TIM_DMACaptureCplt
    stm32f4xx_hal_tim_ex.o(i.HAL_TIMEx_HallSensor_Start_DMA) refers to stm32f4xx_hal_tim.o(i.TIM_DMAError) for TIM_DMAError
    stm32f4xx_hal_tim_ex.o(i.HAL_TIMEx_HallSensor_Start_IT) refers to stm32f4xx_hal_tim.o(i.TIM_CCxChannelCmd) for TIM_CCxChannelCmd
    stm32f4xx_hal_tim_ex.o(i.HAL_TIMEx_HallSensor_Stop) refers to stm32f4xx_hal_tim.o(i.TIM_CCxChannelCmd) for TIM_CCxChannelCmd
    stm32f4xx_hal_tim_ex.o(i.HAL_TIMEx_HallSensor_Stop_DMA) refers to stm32f4xx_hal_tim.o(i.TIM_CCxChannelCmd) for TIM_CCxChannelCmd
    stm32f4xx_hal_tim_ex.o(i.HAL_TIMEx_HallSensor_Stop_IT) refers to stm32f4xx_hal_tim.o(i.TIM_CCxChannelCmd) for TIM_CCxChannelCmd
    stm32f4xx_hal_tim_ex.o(i.HAL_TIMEx_OCN_Start) refers to stm32f4xx_hal_tim_ex.o(i.TIM_CCxNChannelCmd) for TIM_CCxNChannelCmd
    stm32f4xx_hal_tim_ex.o(i.HAL_TIMEx_OCN_Start_DMA) refers to stm32f4xx_hal_dma.o(i.HAL_DMA_Start_IT) for HAL_DMA_Start_IT
    stm32f4xx_hal_tim_ex.o(i.HAL_TIMEx_OCN_Start_DMA) refers to stm32f4xx_hal_tim_ex.o(i.TIM_CCxNChannelCmd) for TIM_CCxNChannelCmd
    stm32f4xx_hal_tim_ex.o(i.HAL_TIMEx_OCN_Start_DMA) refers to stm32f4xx_hal_tim.o(i.TIM_DMADelayPulseCplt) for TIM_DMADelayPulseCplt
    stm32f4xx_hal_tim_ex.o(i.HAL_TIMEx_OCN_Start_DMA) refers to stm32f4xx_hal_tim.o(i.TIM_DMAError) for TIM_DMAError
    stm32f4xx_hal_tim_ex.o(i.HAL_TIMEx_OCN_Start_IT) refers to stm32f4xx_hal_tim_ex.o(i.TIM_CCxNChannelCmd) for TIM_CCxNChannelCmd
    stm32f4xx_hal_tim_ex.o(i.HAL_TIMEx_OCN_Stop) refers to stm32f4xx_hal_tim_ex.o(i.TIM_CCxNChannelCmd) for TIM_CCxNChannelCmd
    stm32f4xx_hal_tim_ex.o(i.HAL_TIMEx_OCN_Stop_DMA) refers to stm32f4xx_hal_tim_ex.o(i.TIM_CCxNChannelCmd) for TIM_CCxNChannelCmd
    stm32f4xx_hal_tim_ex.o(i.HAL_TIMEx_OCN_Stop_IT) refers to stm32f4xx_hal_tim_ex.o(i.TIM_CCxNChannelCmd) for TIM_CCxNChannelCmd
    stm32f4xx_hal_tim_ex.o(i.HAL_TIMEx_OnePulseN_Start) refers to stm32f4xx_hal_tim_ex.o(i.TIM_CCxNChannelCmd) for TIM_CCxNChannelCmd
    stm32f4xx_hal_tim_ex.o(i.HAL_TIMEx_OnePulseN_Start_IT) refers to stm32f4xx_hal_tim_ex.o(i.TIM_CCxNChannelCmd) for TIM_CCxNChannelCmd
    stm32f4xx_hal_tim_ex.o(i.HAL_TIMEx_OnePulseN_Stop) refers to stm32f4xx_hal_tim_ex.o(i.TIM_CCxNChannelCmd) for TIM_CCxNChannelCmd
    stm32f4xx_hal_tim_ex.o(i.HAL_TIMEx_OnePulseN_Stop_IT) refers to stm32f4xx_hal_tim_ex.o(i.TIM_CCxNChannelCmd) for TIM_CCxNChannelCmd
    stm32f4xx_hal_tim_ex.o(i.HAL_TIMEx_PWMN_Start) refers to stm32f4xx_hal_tim_ex.o(i.TIM_CCxNChannelCmd) for TIM_CCxNChannelCmd
    stm32f4xx_hal_tim_ex.o(i.HAL_TIMEx_PWMN_Start_DMA) refers to stm32f4xx_hal_dma.o(i.HAL_DMA_Start_IT) for HAL_DMA_Start_IT
    stm32f4xx_hal_tim_ex.o(i.HAL_TIMEx_PWMN_Start_DMA) refers to stm32f4xx_hal_tim_ex.o(i.TIM_CCxNChannelCmd) for TIM_CCxNChannelCmd
    stm32f4xx_hal_tim_ex.o(i.HAL_TIMEx_PWMN_Start_DMA) refers to stm32f4xx_hal_tim.o(i.TIM_DMADelayPulseCplt) for TIM_DMADelayPulseCplt
    stm32f4xx_hal_tim_ex.o(i.HAL_TIMEx_PWMN_Start_DMA) refers to stm32f4xx_hal_tim.o(i.TIM_DMAError) for TIM_DMAError
    stm32f4xx_hal_tim_ex.o(i.HAL_TIMEx_PWMN_Start_IT) refers to stm32f4xx_hal_tim_ex.o(i.TIM_CCxNChannelCmd) for TIM_CCxNChannelCmd
    stm32f4xx_hal_tim_ex.o(i.HAL_TIMEx_PWMN_Stop) refers to stm32f4xx_hal_tim_ex.o(i.TIM_CCxNChannelCmd) for TIM_CCxNChannelCmd
    stm32f4xx_hal_tim_ex.o(i.HAL_TIMEx_PWMN_Stop_DMA) refers to stm32f4xx_hal_tim_ex.o(i.TIM_CCxNChannelCmd) for TIM_CCxNChannelCmd
    stm32f4xx_hal_tim_ex.o(i.HAL_TIMEx_PWMN_Stop_IT) refers to stm32f4xx_hal_tim_ex.o(i.TIM_CCxNChannelCmd) for TIM_CCxNChannelCmd
    stm32f4xx_hal_tim_ex.o(i.TIMEx_DMACommutationCplt) refers to stm32f4xx_hal_tim_ex.o(i.HAL_TIMEx_CommutationCallback) for HAL_TIMEx_CommutationCallback
    stm32f4xx_hal_uart.o(i.HAL_HalfDuplex_Init) refers to stm32f4xx_hal_msp.o(i.HAL_UART_MspInit) for HAL_UART_MspInit
    stm32f4xx_hal_uart.o(i.HAL_HalfDuplex_Init) refers to stm32f4xx_hal_uart.o(i.UART_SetConfig) for UART_SetConfig
    stm32f4xx_hal_uart.o(i.HAL_LIN_Init) refers to stm32f4xx_hal_msp.o(i.HAL_UART_MspInit) for HAL_UART_MspInit
    stm32f4xx_hal_uart.o(i.HAL_LIN_Init) refers to stm32f4xx_hal_uart.o(i.UART_SetConfig) for UART_SetConfig
    stm32f4xx_hal_uart.o(i.HAL_MultiProcessor_Init) refers to stm32f4xx_hal_msp.o(i.HAL_UART_MspInit) for HAL_UART_MspInit
    stm32f4xx_hal_uart.o(i.HAL_MultiProcessor_Init) refers to stm32f4xx_hal_uart.o(i.UART_SetConfig) for UART_SetConfig
    stm32f4xx_hal_uart.o(i.HAL_UART_Abort) refers to stm32f4xx_hal_dma.o(i.HAL_DMA_Abort) for HAL_DMA_Abort
    stm32f4xx_hal_uart.o(i.HAL_UART_AbortReceive) refers to stm32f4xx_hal_dma.o(i.HAL_DMA_Abort) for HAL_DMA_Abort
    stm32f4xx_hal_uart.o(i.HAL_UART_AbortReceive_IT) refers to stm32f4xx_hal_dma.o(i.HAL_DMA_Abort_IT) for HAL_DMA_Abort_IT
    stm32f4xx_hal_uart.o(i.HAL_UART_AbortReceive_IT) refers to stm32f4xx_hal_uart.o(i.HAL_UART_AbortReceiveCpltCallback) for HAL_UART_AbortReceiveCpltCallback
    stm32f4xx_hal_uart.o(i.HAL_UART_AbortReceive_IT) refers to stm32f4xx_hal_uart.o(i.UART_DMARxOnlyAbortCallback) for UART_DMARxOnlyAbortCallback
    stm32f4xx_hal_uart.o(i.HAL_UART_AbortTransmit) refers to stm32f4xx_hal_dma.o(i.HAL_DMA_Abort) for HAL_DMA_Abort
    stm32f4xx_hal_uart.o(i.HAL_UART_AbortTransmit_IT) refers to stm32f4xx_hal_dma.o(i.HAL_DMA_Abort_IT) for HAL_DMA_Abort_IT
    stm32f4xx_hal_uart.o(i.HAL_UART_AbortTransmit_IT) refers to stm32f4xx_hal_uart.o(i.HAL_UART_AbortTransmitCpltCallback) for HAL_UART_AbortTransmitCpltCallback
    stm32f4xx_hal_uart.o(i.HAL_UART_AbortTransmit_IT) refers to stm32f4xx_hal_uart.o(i.UART_DMATxOnlyAbortCallback) for UART_DMATxOnlyAbortCallback
    stm32f4xx_hal_uart.o(i.HAL_UART_Abort_IT) refers to stm32f4xx_hal_dma.o(i.HAL_DMA_Abort_IT) for HAL_DMA_Abort_IT
    stm32f4xx_hal_uart.o(i.HAL_UART_Abort_IT) refers to stm32f4xx_hal_uart.o(i.HAL_UART_AbortCpltCallback) for HAL_UART_AbortCpltCallback
    stm32f4xx_hal_uart.o(i.HAL_UART_Abort_IT) refers to stm32f4xx_hal_uart.o(i.UART_DMATxAbortCallback) for UART_DMATxAbortCallback
    stm32f4xx_hal_uart.o(i.HAL_UART_Abort_IT) refers to stm32f4xx_hal_uart.o(i.UART_DMARxAbortCallback) for UART_DMARxAbortCallback
    stm32f4xx_hal_uart.o(i.HAL_UART_DMAStop) refers to stm32f4xx_hal_dma.o(i.HAL_DMA_Abort) for HAL_DMA_Abort
    stm32f4xx_hal_uart.o(i.HAL_UART_DMAStop) refers to stm32f4xx_hal_uart.o(i.UART_EndTxTransfer) for UART_EndTxTransfer
    stm32f4xx_hal_uart.o(i.HAL_UART_DMAStop) refers to stm32f4xx_hal_uart.o(i.UART_EndRxTransfer) for UART_EndRxTransfer
    stm32f4xx_hal_uart.o(i.HAL_UART_DeInit) refers to stm32f4xx_hal_msp.o(i.HAL_UART_MspDeInit) for HAL_UART_MspDeInit
    stm32f4xx_hal_uart.o(i.HAL_UART_IRQHandler) refers to stm32f4xx_hal_uart.o(i.UART_Receive_IT) for UART_Receive_IT
    stm32f4xx_hal_uart.o(i.HAL_UART_IRQHandler) refers to stm32f4xx_hal_uart.o(i.UART_EndRxTransfer) for UART_EndRxTransfer
    stm32f4xx_hal_uart.o(i.HAL_UART_IRQHandler) refers to stm32f4xx_hal_dma.o(i.HAL_DMA_Abort_IT) for HAL_DMA_Abort_IT
    stm32f4xx_hal_uart.o(i.HAL_UART_IRQHandler) refers to stm32f4xx_hal_uart.o(i.HAL_UART_ErrorCallback) for HAL_UART_ErrorCallback
    stm32f4xx_hal_uart.o(i.HAL_UART_IRQHandler) refers to stm32f4xx_hal_uart.o(i.UART_Transmit_IT) for UART_Transmit_IT
    stm32f4xx_hal_uart.o(i.HAL_UART_IRQHandler) refers to stm32f4xx_hal_uart.o(i.HAL_UART_TxCpltCallback) for HAL_UART_TxCpltCallback
    stm32f4xx_hal_uart.o(i.HAL_UART_IRQHandler) refers to stm32f4xx_hal_uart.o(i.UART_DMAAbortOnError) for UART_DMAAbortOnError
    stm32f4xx_hal_uart.o(i.HAL_UART_Init) refers to stm32f4xx_hal_msp.o(i.HAL_UART_MspInit) for HAL_UART_MspInit
    stm32f4xx_hal_uart.o(i.HAL_UART_Init) refers to stm32f4xx_hal_uart.o(i.UART_SetConfig) for UART_SetConfig
    stm32f4xx_hal_uart.o(i.HAL_UART_Receive) refers to stm32f4xx_hal.o(i.HAL_GetTick) for HAL_GetTick
    stm32f4xx_hal_uart.o(i.HAL_UART_Receive) refers to stm32f4xx_hal_uart.o(i.UART_WaitOnFlagUntilTimeout) for UART_WaitOnFlagUntilTimeout
    stm32f4xx_hal_uart.o(i.HAL_UART_Receive_DMA) refers to stm32f4xx_hal_dma.o(i.HAL_DMA_Start_IT) for HAL_DMA_Start_IT
    stm32f4xx_hal_uart.o(i.HAL_UART_Receive_DMA) refers to stm32f4xx_hal_uart.o(i.UART_DMAReceiveCplt) for UART_DMAReceiveCplt
    stm32f4xx_hal_uart.o(i.HAL_UART_Receive_DMA) refers to stm32f4xx_hal_uart.o(i.UART_DMARxHalfCplt) for UART_DMARxHalfCplt
    stm32f4xx_hal_uart.o(i.HAL_UART_Receive_DMA) refers to stm32f4xx_hal_uart.o(i.UART_DMAError) for UART_DMAError
    stm32f4xx_hal_uart.o(i.HAL_UART_Transmit) refers to stm32f4xx_hal.o(i.HAL_GetTick) for HAL_GetTick
    stm32f4xx_hal_uart.o(i.HAL_UART_Transmit) refers to stm32f4xx_hal_uart.o(i.UART_WaitOnFlagUntilTimeout) for UART_WaitOnFlagUntilTimeout
    stm32f4xx_hal_uart.o(i.HAL_UART_Transmit_DMA) refers to stm32f4xx_hal_dma.o(i.HAL_DMA_Start_IT) for HAL_DMA_Start_IT
    stm32f4xx_hal_uart.o(i.HAL_UART_Transmit_DMA) refers to stm32f4xx_hal_uart.o(i.UART_DMATransmitCplt) for UART_DMATransmitCplt
    stm32f4xx_hal_uart.o(i.HAL_UART_Transmit_DMA) refers to stm32f4xx_hal_uart.o(i.UART_DMATxHalfCplt) for UART_DMATxHalfCplt
    stm32f4xx_hal_uart.o(i.HAL_UART_Transmit_DMA) refers to stm32f4xx_hal_uart.o(i.UART_DMAError) for UART_DMAError
    stm32f4xx_hal_uart.o(i.UART_DMAAbortOnError) refers to stm32f4xx_hal_uart.o(i.HAL_UART_ErrorCallback) for HAL_UART_ErrorCallback
    stm32f4xx_hal_uart.o(i.UART_DMAError) refers to stm32f4xx_hal_uart.o(i.UART_EndTxTransfer) for UART_EndTxTransfer
    stm32f4xx_hal_uart.o(i.UART_DMAError) refers to stm32f4xx_hal_uart.o(i.UART_EndRxTransfer) for UART_EndRxTransfer
    stm32f4xx_hal_uart.o(i.UART_DMAError) refers to stm32f4xx_hal_uart.o(i.HAL_UART_ErrorCallback) for HAL_UART_ErrorCallback
    stm32f4xx_hal_uart.o(i.UART_DMAReceiveCplt) refers to fibocom.o(i.HAL_UART_RxCpltCallback) for HAL_UART_RxCpltCallback
    stm32f4xx_hal_uart.o(i.UART_DMARxAbortCallback) refers to stm32f4xx_hal_uart.o(i.HAL_UART_AbortCpltCallback) for HAL_UART_AbortCpltCallback
    stm32f4xx_hal_uart.o(i.UART_DMARxHalfCplt) refers to stm32f4xx_hal_uart.o(i.HAL_UART_RxHalfCpltCallback) for HAL_UART_RxHalfCpltCallback
    stm32f4xx_hal_uart.o(i.UART_DMARxOnlyAbortCallback) refers to stm32f4xx_hal_uart.o(i.HAL_UART_AbortReceiveCpltCallback) for HAL_UART_AbortReceiveCpltCallback
    stm32f4xx_hal_uart.o(i.UART_DMATransmitCplt) refers to stm32f4xx_hal_uart.o(i.HAL_UART_TxCpltCallback) for HAL_UART_TxCpltCallback
    stm32f4xx_hal_uart.o(i.UART_DMATxAbortCallback) refers to stm32f4xx_hal_uart.o(i.HAL_UART_AbortCpltCallback) for HAL_UART_AbortCpltCallback
    stm32f4xx_hal_uart.o(i.UART_DMATxHalfCplt) refers to stm32f4xx_hal_uart.o(i.HAL_UART_TxHalfCpltCallback) for HAL_UART_TxHalfCpltCallback
    stm32f4xx_hal_uart.o(i.UART_DMATxOnlyAbortCallback) refers to stm32f4xx_hal_uart.o(i.HAL_UART_AbortTransmitCpltCallback) for HAL_UART_AbortTransmitCpltCallback
    stm32f4xx_hal_uart.o(i.UART_Receive_IT) refers to fibocom.o(i.HAL_UART_RxCpltCallback) for HAL_UART_RxCpltCallback
    stm32f4xx_hal_uart.o(i.UART_SetConfig) refers to stm32f4xx_hal_rcc.o(i.HAL_RCC_GetPCLK2Freq) for HAL_RCC_GetPCLK2Freq
    stm32f4xx_hal_uart.o(i.UART_SetConfig) refers to stm32f4xx_hal_rcc.o(i.HAL_RCC_GetPCLK1Freq) for HAL_RCC_GetPCLK1Freq
    stm32f4xx_hal_uart.o(i.UART_WaitOnFlagUntilTimeout) refers to stm32f4xx_hal.o(i.HAL_GetTick) for HAL_GetTick
    stm32f4xx_hal_cortex.o(i.HAL_NVIC_SetPriority) refers to stm32f4xx_hal_cortex.o(i.NVIC_SetPriority) for NVIC_SetPriority
    stm32f4xx_hal_cortex.o(i.HAL_SYSTICK_Config) refers to stm32f4xx_hal_cortex.o(i.NVIC_SetPriority) for NVIC_SetPriority
    stm32f4xx_hal_cortex.o(i.HAL_SYSTICK_IRQHandler) refers to stm32f4xx_hal_cortex.o(i.HAL_SYSTICK_Callback) for HAL_SYSTICK_Callback
    stm32f4xx_hal_dma_ex.o(i.HAL_DMAEx_MultiBufferStart) refers to stm32f4xx_hal_dma_ex.o(i.DMA_MultiBufferSetConfig) for DMA_MultiBufferSetConfig
    stm32f4xx_hal_dma_ex.o(i.HAL_DMAEx_MultiBufferStart_IT) refers to stm32f4xx_hal_dma_ex.o(i.DMA_MultiBufferSetConfig) for DMA_MultiBufferSetConfig
    stm32f4xx_hal_flash_ex.o(i.HAL_FLASHEx_AdvOBProgram) refers to stm32f4xx_hal_flash.o(i.FLASH_WaitForLastOperation) for FLASH_WaitForLastOperation
    stm32f4xx_hal_flash_ex.o(i.HAL_FLASHEx_Erase) refers to stm32f4xx_hal_flash.o(i.FLASH_WaitForLastOperation) for FLASH_WaitForLastOperation
    stm32f4xx_hal_flash_ex.o(i.HAL_FLASHEx_Erase) refers to stm32f4xx_hal_flash_ex.o(i.FLASH_MassErase) for FLASH_MassErase
    stm32f4xx_hal_flash_ex.o(i.HAL_FLASHEx_Erase) refers to stm32f4xx_hal_flash_ex.o(i.FLASH_Erase_Sector) for FLASH_Erase_Sector
    stm32f4xx_hal_flash_ex.o(i.HAL_FLASHEx_Erase) refers to stm32f4xx_hal_flash_ex.o(i.FLASH_FlushCaches) for FLASH_FlushCaches
    stm32f4xx_hal_flash_ex.o(i.HAL_FLASHEx_Erase) refers to stm32f4xx_hal_flash.o(.bss) for pFlash
    stm32f4xx_hal_flash_ex.o(i.HAL_FLASHEx_Erase_IT) refers to stm32f4xx_hal_flash_ex.o(i.FLASH_Erase_Sector) for FLASH_Erase_Sector
    stm32f4xx_hal_flash_ex.o(i.HAL_FLASHEx_Erase_IT) refers to stm32f4xx_hal_flash_ex.o(i.FLASH_MassErase) for FLASH_MassErase
    stm32f4xx_hal_flash_ex.o(i.HAL_FLASHEx_Erase_IT) refers to stm32f4xx_hal_flash.o(.bss) for pFlash
    stm32f4xx_hal_flash_ex.o(i.HAL_FLASHEx_OBProgram) refers to stm32f4xx_hal_flash.o(i.FLASH_WaitForLastOperation) for FLASH_WaitForLastOperation
    stm32f4xx_hal_flash_ex.o(i.HAL_FLASHEx_OBProgram) refers to stm32f4xx_hal_flash.o(.bss) for pFlash
    stm32f4xx_hal_rtc_ex.o(i.HAL_RTCEx_DeactivateCoarseCalib) refers to stm32f4xx_hal_rtc.o(i.RTC_EnterInitMode) for RTC_EnterInitMode
    stm32f4xx_hal_rtc_ex.o(i.HAL_RTCEx_DeactivateRefClock) refers to stm32f4xx_hal_rtc.o(i.RTC_EnterInitMode) for RTC_EnterInitMode
    stm32f4xx_hal_rtc_ex.o(i.HAL_RTCEx_DeactivateWakeUpTimer) refers to stm32f4xx_hal.o(i.HAL_GetTick) for HAL_GetTick
    stm32f4xx_hal_rtc_ex.o(i.HAL_RTCEx_GetTimeStamp) refers to stm32f4xx_hal_rtc.o(i.RTC_Bcd2ToByte) for RTC_Bcd2ToByte
    stm32f4xx_hal_rtc_ex.o(i.HAL_RTCEx_PollForAlarmBEvent) refers to stm32f4xx_hal.o(i.HAL_GetTick) for HAL_GetTick
    stm32f4xx_hal_rtc_ex.o(i.HAL_RTCEx_PollForTamper1Event) refers to stm32f4xx_hal.o(i.HAL_GetTick) for HAL_GetTick
    stm32f4xx_hal_rtc_ex.o(i.HAL_RTCEx_PollForTamper2Event) refers to stm32f4xx_hal.o(i.HAL_GetTick) for HAL_GetTick
    stm32f4xx_hal_rtc_ex.o(i.HAL_RTCEx_PollForTimeStampEvent) refers to stm32f4xx_hal.o(i.HAL_GetTick) for HAL_GetTick
    stm32f4xx_hal_rtc_ex.o(i.HAL_RTCEx_PollForWakeUpTimerEvent) refers to stm32f4xx_hal.o(i.HAL_GetTick) for HAL_GetTick
    stm32f4xx_hal_rtc_ex.o(i.HAL_RTCEx_SetCoarseCalib) refers to stm32f4xx_hal_rtc.o(i.RTC_EnterInitMode) for RTC_EnterInitMode
    stm32f4xx_hal_rtc_ex.o(i.HAL_RTCEx_SetRefClock) refers to stm32f4xx_hal_rtc.o(i.RTC_EnterInitMode) for RTC_EnterInitMode
    stm32f4xx_hal_rtc_ex.o(i.HAL_RTCEx_SetSmoothCalib) refers to stm32f4xx_hal.o(i.HAL_GetTick) for HAL_GetTick
    stm32f4xx_hal_rtc_ex.o(i.HAL_RTCEx_SetSynchroShift) refers to stm32f4xx_hal.o(i.HAL_GetTick) for HAL_GetTick
    stm32f4xx_hal_rtc_ex.o(i.HAL_RTCEx_SetSynchroShift) refers to stm32f4xx_hal_rtc.o(i.HAL_RTC_WaitForSynchro) for HAL_RTC_WaitForSynchro
    stm32f4xx_hal_rtc_ex.o(i.HAL_RTCEx_SetWakeUpTimer) refers to stm32f4xx_hal.o(i.HAL_GetTick) for HAL_GetTick
    stm32f4xx_hal_rtc_ex.o(i.HAL_RTCEx_SetWakeUpTimer_IT) refers to system_stm32f4xx.o(.data) for SystemCoreClock
    stm32f4xx_hal_rtc_ex.o(i.HAL_RTCEx_TamperTimeStampIRQHandler) refers to stm32f4xx_hal_rtc_ex.o(i.HAL_RTCEx_TimeStampEventCallback) for HAL_RTCEx_TimeStampEventCallback
    stm32f4xx_hal_rtc_ex.o(i.HAL_RTCEx_TamperTimeStampIRQHandler) refers to stm32f4xx_hal_rtc_ex.o(i.HAL_RTCEx_Tamper1EventCallback) for HAL_RTCEx_Tamper1EventCallback
    stm32f4xx_hal_rtc_ex.o(i.HAL_RTCEx_TamperTimeStampIRQHandler) refers to stm32f4xx_hal_rtc_ex.o(i.HAL_RTCEx_Tamper2EventCallback) for HAL_RTCEx_Tamper2EventCallback
    stm32f4xx_hal_rtc_ex.o(i.HAL_RTCEx_WakeUpTimerIRQHandler) refers to stm32f4xx_hal_rtc_ex.o(i.HAL_RTCEx_WakeUpTimerEventCallback) for HAL_RTCEx_WakeUpTimerEventCallback
    stm32f4xx_hal_rtc.o(i.HAL_RTC_AlarmIRQHandler) refers to stm32f4xx_hal_rtc.o(i.HAL_RTC_AlarmAEventCallback) for HAL_RTC_AlarmAEventCallback
    stm32f4xx_hal_rtc.o(i.HAL_RTC_AlarmIRQHandler) refers to stm32f4xx_hal_rtc_ex.o(i.HAL_RTCEx_AlarmBEventCallback) for HAL_RTCEx_AlarmBEventCallback
    stm32f4xx_hal_rtc.o(i.HAL_RTC_DeInit) refers to stm32f4xx_hal_rtc.o(i.RTC_EnterInitMode) for RTC_EnterInitMode
    stm32f4xx_hal_rtc.o(i.HAL_RTC_DeInit) refers to stm32f4xx_hal.o(i.HAL_GetTick) for HAL_GetTick
    stm32f4xx_hal_rtc.o(i.HAL_RTC_DeInit) refers to stm32f4xx_hal_rtc.o(i.HAL_RTC_WaitForSynchro) for HAL_RTC_WaitForSynchro
    stm32f4xx_hal_rtc.o(i.HAL_RTC_DeInit) refers to stm32f4xx_hal_msp.o(i.HAL_RTC_MspDeInit) for HAL_RTC_MspDeInit
    stm32f4xx_hal_rtc.o(i.HAL_RTC_DeactivateAlarm) refers to stm32f4xx_hal.o(i.HAL_GetTick) for HAL_GetTick
    stm32f4xx_hal_rtc.o(i.HAL_RTC_GetAlarm) refers to stm32f4xx_hal_rtc.o(i.RTC_Bcd2ToByte) for RTC_Bcd2ToByte
    stm32f4xx_hal_rtc.o(i.HAL_RTC_GetDate) refers to stm32f4xx_hal_rtc.o(i.RTC_Bcd2ToByte) for RTC_Bcd2ToByte
    stm32f4xx_hal_rtc.o(i.HAL_RTC_GetTime) refers to stm32f4xx_hal_rtc.o(i.RTC_Bcd2ToByte) for RTC_Bcd2ToByte
    stm32f4xx_hal_rtc.o(i.HAL_RTC_Init) refers to stm32f4xx_hal_msp.o(i.HAL_RTC_MspInit) for HAL_RTC_MspInit
    stm32f4xx_hal_rtc.o(i.HAL_RTC_Init) refers to stm32f4xx_hal_rtc.o(i.RTC_EnterInitMode) for RTC_EnterInitMode
    stm32f4xx_hal_rtc.o(i.HAL_RTC_PollForAlarmAEvent) refers to stm32f4xx_hal.o(i.HAL_GetTick) for HAL_GetTick
    stm32f4xx_hal_rtc.o(i.HAL_RTC_SetAlarm) refers to stm32f4xx_hal_rtc.o(i.RTC_Bcd2ToByte) for RTC_Bcd2ToByte
    stm32f4xx_hal_rtc.o(i.HAL_RTC_SetAlarm) refers to stm32f4xx_hal.o(i.HAL_GetTick) for HAL_GetTick
    stm32f4xx_hal_rtc.o(i.HAL_RTC_SetAlarm) refers to stm32f4xx_hal_rtc.o(i.RTC_ByteToBcd2) for RTC_ByteToBcd2
    stm32f4xx_hal_rtc.o(i.HAL_RTC_SetAlarm_IT) refers to stm32f4xx_hal_rtc.o(i.RTC_Bcd2ToByte) for RTC_Bcd2ToByte
    stm32f4xx_hal_rtc.o(i.HAL_RTC_SetAlarm_IT) refers to stm32f4xx_hal_rtc.o(i.RTC_ByteToBcd2) for RTC_ByteToBcd2
    stm32f4xx_hal_rtc.o(i.HAL_RTC_SetAlarm_IT) refers to system_stm32f4xx.o(.data) for SystemCoreClock
    stm32f4xx_hal_rtc.o(i.HAL_RTC_SetDate) refers to stm32f4xx_hal_rtc.o(i.RTC_Bcd2ToByte) for RTC_Bcd2ToByte
    stm32f4xx_hal_rtc.o(i.HAL_RTC_SetDate) refers to stm32f4xx_hal_rtc.o(i.RTC_EnterInitMode) for RTC_EnterInitMode
    stm32f4xx_hal_rtc.o(i.HAL_RTC_SetDate) refers to stm32f4xx_hal_rtc.o(i.RTC_ByteToBcd2) for RTC_ByteToBcd2
    stm32f4xx_hal_rtc.o(i.HAL_RTC_SetDate) refers to stm32f4xx_hal_rtc.o(i.HAL_RTC_WaitForSynchro) for HAL_RTC_WaitForSynchro
    stm32f4xx_hal_rtc.o(i.HAL_RTC_SetTime) refers to stm32f4xx_hal_rtc.o(i.RTC_Bcd2ToByte) for RTC_Bcd2ToByte
    stm32f4xx_hal_rtc.o(i.HAL_RTC_SetTime) refers to stm32f4xx_hal_rtc.o(i.RTC_ByteToBcd2) for RTC_ByteToBcd2
    stm32f4xx_hal_rtc.o(i.HAL_RTC_SetTime) refers to stm32f4xx_hal_rtc.o(i.RTC_EnterInitMode) for RTC_EnterInitMode
    stm32f4xx_hal_rtc.o(i.HAL_RTC_SetTime) refers to stm32f4xx_hal_rtc.o(i.HAL_RTC_WaitForSynchro) for HAL_RTC_WaitForSynchro
    stm32f4xx_hal_rtc.o(i.HAL_RTC_WaitForSynchro) refers to stm32f4xx_hal.o(i.HAL_GetTick) for HAL_GetTick
    stm32f4xx_hal_rtc.o(i.RTC_EnterInitMode) refers to stm32f4xx_hal.o(i.HAL_GetTick) for HAL_GetTick
    stm32f4xx_hal_gpio.o(i.HAL_GPIO_EXTI_IRQHandler) refers to stm32f4xx_hal_gpio.o(i.HAL_GPIO_EXTI_Callback) for HAL_GPIO_EXTI_Callback
    stm32f4xx_hal_pwr.o(i.HAL_PWR_PVD_IRQHandler) refers to stm32f4xx_hal_pwr.o(i.HAL_PWR_PVDCallback) for HAL_PWR_PVDCallback
    stm32f4xx_hal_dma.o(i.DMA_CalcBaseAndBitshift) refers to stm32f4xx_hal_dma.o(.constdata) for .constdata
    stm32f4xx_hal_dma.o(i.HAL_DMA_Abort) refers to stm32f4xx_hal.o(i.HAL_GetTick) for HAL_GetTick
    stm32f4xx_hal_dma.o(i.HAL_DMA_DeInit) refers to stm32f4xx_hal_dma.o(i.DMA_CalcBaseAndBitshift) for DMA_CalcBaseAndBitshift
    stm32f4xx_hal_dma.o(i.HAL_DMA_IRQHandler) refers to system_stm32f4xx.o(.data) for SystemCoreClock
    stm32f4xx_hal_dma.o(i.HAL_DMA_Init) refers to stm32f4xx_hal.o(i.HAL_GetTick) for HAL_GetTick
    stm32f4xx_hal_dma.o(i.HAL_DMA_Init) refers to stm32f4xx_hal_dma.o(i.DMA_CheckFifoParam) for DMA_CheckFifoParam
    stm32f4xx_hal_dma.o(i.HAL_DMA_Init) refers to stm32f4xx_hal_dma.o(i.DMA_CalcBaseAndBitshift) for DMA_CalcBaseAndBitshift
    stm32f4xx_hal_dma.o(i.HAL_DMA_PollForTransfer) refers to stm32f4xx_hal.o(i.HAL_GetTick) for HAL_GetTick
    stm32f4xx_hal_dma.o(i.HAL_DMA_PollForTransfer) refers to stm32f4xx_hal_dma.o(i.HAL_DMA_Abort) for HAL_DMA_Abort
    stm32f4xx_hal_dma.o(i.HAL_DMA_Start) refers to stm32f4xx_hal_dma.o(i.DMA_SetConfig) for DMA_SetConfig
    stm32f4xx_hal_dma.o(i.HAL_DMA_Start_IT) refers to stm32f4xx_hal_dma.o(i.DMA_SetConfig) for DMA_SetConfig
    stm32f4xx_hal_pwr_ex.o(i.HAL_PWREx_ControlVoltageScaling) refers to stm32f4xx_hal.o(i.HAL_GetTick) for HAL_GetTick
    stm32f4xx_hal_pwr_ex.o(i.HAL_PWREx_DisableBkUpReg) refers to stm32f4xx_hal.o(i.HAL_GetTick) for HAL_GetTick
    stm32f4xx_hal_pwr_ex.o(i.HAL_PWREx_EnableBkUpReg) refers to stm32f4xx_hal.o(i.HAL_GetTick) for HAL_GetTick
    dht11.o(i.DHT11) refers to dht11.o(i.pinMode) for pinMode
    dht11.o(i.DHT11) refers to dht11.o(i.digitalWrite) for digitalWrite
    dht11.o(i.DHT11) refers to dht11.o(.data) for .data
    dht11.o(i.digitalRead) refers to stm32f4xx_hal_gpio.o(i.HAL_GPIO_ReadPin) for HAL_GPIO_ReadPin
    dht11.o(i.digitalWrite) refers to stm32f4xx_hal_gpio.o(i.HAL_GPIO_WritePin) for HAL_GPIO_WritePin
    dht11.o(i.pinMode) refers to stm32f4xx_hal_gpio.o(i.HAL_GPIO_Init) for HAL_GPIO_Init
    dht11.o(i.read) refers to dht11.o(i.pinMode) for pinMode
    dht11.o(i.read) refers to dht11.o(i.digitalWrite) for digitalWrite
    dht11.o(i.read) refers to stm32f4xx_hal.o(i.HAL_Delay) for HAL_Delay
    dht11.o(i.read) refers to dht11.o(i.waitForT) for waitForT
    dht11.o(i.read) refers to dht11.o(i.readByte) for readByte
    dht11.o(i.read) refers to dht11.o(.data) for .data
    dht11.o(i.readByte) refers to dht11.o(i.waitFor) for waitFor
    dht11.o(i.readByte) refers to main.o(i.delay_us) for delay_us
    dht11.o(i.readByte) refers to dht11.o(i.digitalRead) for digitalRead
    dht11.o(i.readByte) refers to dht11.o(.data) for .data
    dht11.o(i.waitFor) refers to dht11.o(i.digitalRead) for digitalRead
    dht11.o(i.waitFor) refers to dht11.o(.data) for .data
    dht11.o(i.waitForT) refers to main.o(i.micros) for micros
    dht11.o(i.waitForT) refers to dht11.o(i.digitalRead) for digitalRead
    dht11.o(i.waitForT) refers to dht11.o(.data) for .data
    stm_my_lcd16x2.o(i.E_pin) refers to stm32f4xx_hal_gpio.o(i.HAL_GPIO_WritePin) for HAL_GPIO_WritePin
    stm_my_lcd16x2.o(i.E_pin) refers to stm_my_lcd16x2.o(.data) for .data
    stm_my_lcd16x2.o(i.LCD_OneLine) refers to stm_my_lcd16x2.o(i.RS_pin) for RS_pin
    stm_my_lcd16x2.o(i.LCD_OneLine) refers to stm_my_lcd16x2.o(i.writeCommand) for writeCommand
    stm_my_lcd16x2.o(i.LCD_OneLine) refers to stm_my_lcd16x2.o(.data) for .data
    stm_my_lcd16x2.o(i.LCD_TwoLines) refers to stm_my_lcd16x2.o(i.RS_pin) for RS_pin
    stm_my_lcd16x2.o(i.LCD_TwoLines) refers to stm_my_lcd16x2.o(i.writeCommand) for writeCommand
    stm_my_lcd16x2.o(i.LCD_TwoLines) refers to stm_my_lcd16x2.o(.data) for .data
    stm_my_lcd16x2.o(i.LCD_begin4BIT) refers to stm32f4xx_hal_rcc.o(i.HAL_RCC_GetSysClockFreq) for HAL_RCC_GetSysClockFreq
    stm_my_lcd16x2.o(i.LCD_begin4BIT) refers to stm32f4xx_hal.o(i.HAL_Delay) for HAL_Delay
    stm_my_lcd16x2.o(i.LCD_begin4BIT) refers to stm_my_lcd16x2.o(i.switchMode) for switchMode
    stm_my_lcd16x2.o(i.LCD_begin4BIT) refers to stm_my_lcd16x2.o(i.setDataLength) for setDataLength
    stm_my_lcd16x2.o(i.LCD_begin4BIT) refers to stm_my_lcd16x2.o(i.writeCommand) for writeCommand
    stm_my_lcd16x2.o(i.LCD_begin4BIT) refers to stm_my_lcd16x2.o(i.LCD_clear) for LCD_clear
    stm_my_lcd16x2.o(i.LCD_begin4BIT) refers to stm_my_lcd16x2.o(i.LCD_TwoLines) for LCD_TwoLines
    stm_my_lcd16x2.o(i.LCD_begin4BIT) refers to stm_my_lcd16x2.o(.data) for .data
    stm_my_lcd16x2.o(i.LCD_begin8BIT) refers to stm32f4xx_hal_rcc.o(i.HAL_RCC_GetSysClockFreq) for HAL_RCC_GetSysClockFreq
    stm_my_lcd16x2.o(i.LCD_begin8BIT) refers to stm_my_lcd16x2.o(i.switchMode) for switchMode
    stm_my_lcd16x2.o(i.LCD_begin8BIT) refers to stm_my_lcd16x2.o(i.setDataLength) for setDataLength
    stm_my_lcd16x2.o(i.LCD_begin8BIT) refers to stm_my_lcd16x2.o(i.writeCommand) for writeCommand
    stm_my_lcd16x2.o(i.LCD_begin8BIT) refers to stm32f4xx_hal.o(i.HAL_Delay) for HAL_Delay
    stm_my_lcd16x2.o(i.LCD_begin8BIT) refers to stm_my_lcd16x2.o(i.LCD_clear) for LCD_clear
    stm_my_lcd16x2.o(i.LCD_begin8BIT) refers to stm_my_lcd16x2.o(.data) for .data
    stm_my_lcd16x2.o(i.LCD_blink) refers to stm_my_lcd16x2.o(i.RS_pin) for RS_pin
    stm_my_lcd16x2.o(i.LCD_blink) refers to stm_my_lcd16x2.o(i.writeCommand) for writeCommand
    stm_my_lcd16x2.o(i.LCD_blink) refers to stm_my_lcd16x2.o(.data) for .data
    stm_my_lcd16x2.o(i.LCD_clear) refers to stm_my_lcd16x2.o(i.RS_pin) for RS_pin
    stm_my_lcd16x2.o(i.LCD_clear) refers to stm_my_lcd16x2.o(i.writeCommand) for writeCommand
    stm_my_lcd16x2.o(i.LCD_clear) refers to stm32f4xx_hal.o(i.HAL_Delay) for HAL_Delay
    stm_my_lcd16x2.o(i.LCD_cursor) refers to stm_my_lcd16x2.o(i.RS_pin) for RS_pin
    stm_my_lcd16x2.o(i.LCD_cursor) refers to stm_my_lcd16x2.o(i.writeCommand) for writeCommand
    stm_my_lcd16x2.o(i.LCD_cursor) refers to stm_my_lcd16x2.o(.data) for .data
    stm_my_lcd16x2.o(i.LCD_display) refers to stm_my_lcd16x2.o(i.RS_pin) for RS_pin
    stm_my_lcd16x2.o(i.LCD_display) refers to stm_my_lcd16x2.o(i.writeCommand) for writeCommand
    stm_my_lcd16x2.o(i.LCD_display) refers to stm_my_lcd16x2.o(.data) for .data
    stm_my_lcd16x2.o(i.LCD_ftoa) refers to stm_my_lcd16x2.o(i.intToStr) for intToStr
    stm_my_lcd16x2.o(i.LCD_ftoa) refers to dflti.o(.text) for __aeabi_i2d
    stm_my_lcd16x2.o(i.LCD_ftoa) refers to pow.o(i.__hardfp_pow) for __hardfp_pow
    stm_my_lcd16x2.o(i.LCD_ftoa) refers to f2d.o(.text) for __aeabi_f2d
    stm_my_lcd16x2.o(i.LCD_ftoa) refers to dmul.o(.text) for __aeabi_dmul
    stm_my_lcd16x2.o(i.LCD_ftoa) refers to d2f.o(.text) for __aeabi_d2f
    stm_my_lcd16x2.o(i.LCD_itoa) refers to strlen.o(.text) for strlen
    stm_my_lcd16x2.o(i.LCD_noBlink) refers to stm_my_lcd16x2.o(i.RS_pin) for RS_pin
    stm_my_lcd16x2.o(i.LCD_noBlink) refers to stm_my_lcd16x2.o(i.writeCommand) for writeCommand
    stm_my_lcd16x2.o(i.LCD_noBlink) refers to stm_my_lcd16x2.o(.data) for .data
    stm_my_lcd16x2.o(i.LCD_noCursor) refers to stm_my_lcd16x2.o(i.RS_pin) for RS_pin
    stm_my_lcd16x2.o(i.LCD_noCursor) refers to stm_my_lcd16x2.o(i.writeCommand) for writeCommand
    stm_my_lcd16x2.o(i.LCD_noCursor) refers to stm_my_lcd16x2.o(.data) for .data
    stm_my_lcd16x2.o(i.LCD_noDisplay) refers to stm_my_lcd16x2.o(i.RS_pin) for RS_pin
    stm_my_lcd16x2.o(i.LCD_noDisplay) refers to stm_my_lcd16x2.o(i.writeCommand) for writeCommand
    stm_my_lcd16x2.o(i.LCD_noDisplay) refers to stm_my_lcd16x2.o(.data) for .data
    stm_my_lcd16x2.o(i.LCD_print) refers to stm_my_lcd16x2.o(i.LCD_writeChar) for LCD_writeChar
    stm_my_lcd16x2.o(i.LCD_setCursor) refers to stm_my_lcd16x2.o(i.RS_pin) for RS_pin
    stm_my_lcd16x2.o(i.LCD_setCursor) refers to stm_my_lcd16x2.o(i.writeCommand) for writeCommand
    stm_my_lcd16x2.o(i.LCD_shiftToLeft) refers to stm_my_lcd16x2.o(i.RS_pin) for RS_pin
    stm_my_lcd16x2.o(i.LCD_shiftToLeft) refers to stm_my_lcd16x2.o(i.writeCommand) for writeCommand
    stm_my_lcd16x2.o(i.LCD_shiftToRight) refers to stm_my_lcd16x2.o(i.RS_pin) for RS_pin
    stm_my_lcd16x2.o(i.LCD_shiftToRight) refers to stm_my_lcd16x2.o(i.writeCommand) for writeCommand
    stm_my_lcd16x2.o(i.LCD_writeChar) refers to stm_my_lcd16x2.o(i.RS_pin) for RS_pin
    stm_my_lcd16x2.o(i.LCD_writeChar) refers to stm_my_lcd16x2.o(i.writeCommand) for writeCommand
    stm_my_lcd16x2.o(i.RS_pin) refers to stm32f4xx_hal_gpio.o(i.HAL_GPIO_WritePin) for HAL_GPIO_WritePin
    stm_my_lcd16x2.o(i.RS_pin) refers to stm_my_lcd16x2.o(.data) for .data
    stm_my_lcd16x2.o(i.setDataLength) refers to stm_my_lcd16x2.o(i.RS_pin) for RS_pin
    stm_my_lcd16x2.o(i.setDataLength) refers to stm_my_lcd16x2.o(i.writeCommand) for writeCommand
    stm_my_lcd16x2.o(i.setDataLength) refers to stm_my_lcd16x2.o(.data) for .data
    stm_my_lcd16x2.o(i.switchMode) refers to stm_my_lcd16x2.o(i.RS_pin) for RS_pin
    stm_my_lcd16x2.o(i.switchMode) refers to stm32f4xx_hal.o(i.HAL_Delay) for HAL_Delay
    stm_my_lcd16x2.o(i.switchMode) refers to stm_my_lcd16x2.o(i.writeCommand) for writeCommand
    stm_my_lcd16x2.o(i.writeCommand) refers to stm_my_lcd16x2.o(i.E_pin) for E_pin
    stm_my_lcd16x2.o(i.writeCommand) refers to stm_my_lcd16x2.o(.data) for .data
    menu.o(i.mnu_HumTemp_periodica) refers to humtemp.o(i.getHumTemp) for getHumTemp
    menu.o(i.mnu_HumTemp_periodica) refers to stm32f4xx_hal.o(i.HAL_Delay) for HAL_Delay
    menu.o(i.mnu_HumTemp_periodica) refers to stm_my_lcd16x2.o(i.LCD_clear) for LCD_clear
    menu.o(i.mnu_HumTemp_periodica) refers to main.o(i.OneWire_Init) for OneWire_Init
    menu.o(i.mnu_HumTemp_periodica) refers to main.o(i.ReportTemperature) for ReportTemperature
    menu.o(i.mnu_HumTemp_periodica) refers to main.o(i.disp_enviar) for disp_enviar
    menu.o(i.mnu_HumTemp_periodica) refers to menu.o(i.mnu_salir) for mnu_salir
    menu.o(i.mnu_HumTemp_periodica) refers to main.o(.data) for system
    menu.o(i.mnu_HumTemp_periodica) refers to main.o(.data) for DHT11_1
    menu.o(i.mnu_HumTemp_periodica) refers to main.o(.data) for DHT11_2
    menu.o(i.mnu_HumTemp_periodica) refers to main.o(.data) for tempComp1
    menu.o(i.mnu_HumTemp_periodica) refers to menu.o(.data) for .data
    menu.o(i.mnu_SoilHumidity_periodica) refers to printf6.o(i.__0sprintf$6) for __2sprintf
    menu.o(i.mnu_SoilHumidity_periodica) refers to main.o(i.disp_enviar) for disp_enviar
    menu.o(i.mnu_SoilHumidity_periodica) refers to menu.o(i.mnu_salir) for mnu_salir
    menu.o(i.mnu_SoilHumidity_periodica) refers to main.o(.data) for system
    menu.o(i.mnu_SoilHumidity_periodica) refers to menu.o(.data) for .data
    menu.o(i.mnu_cambio_seleccion) refers to menu.o(i.mnu_dibujar_elemento_menu) for mnu_dibujar_elemento_menu
    menu.o(i.mnu_cambio_seleccion) refers to menu.o(.data) for .data
    menu.o(i.mnu_confirmar_clave) refers to main.o(i.disp_enviar) for disp_enviar
    menu.o(i.mnu_confirmar_clave) refers to menu.o(.data) for .data
    menu.o(i.mnu_confirmar_clave) refers to menu.o(i.mnu_eventos_confirmar_clave) for mnu_eventos_confirmar_clave
    menu.o(i.mnu_confirmar_guardar_flag) refers to main.o(i.disp_enviar) for disp_enviar
    menu.o(i.mnu_confirmar_guardar_flag) refers to menu.o(.data) for .data
    menu.o(i.mnu_confirmar_guardar_flag) refers to menu.o(i.mnu_eventos_confirmar_guardar_flag) for mnu_eventos_confirmar_guardar_flag
    menu.o(i.mnu_dibujar_elemento_menu) refers to memseta.o(.text) for __aeabi_memclr4
    menu.o(i.mnu_dibujar_elemento_menu) refers to strlen.o(.text) for strlen
    menu.o(i.mnu_dibujar_elemento_menu) refers to printf6.o(i.__0snprintf$6) for __2snprintf
    menu.o(i.mnu_dibujar_elemento_menu) refers to main.o(i.disp_enviar) for disp_enviar
    menu.o(i.mnu_dibujar_elemento_menu) refers to menu.o(.data) for .data
    menu.o(i.mnu_dibujar_flag) refers to strcpy.o(.text) for strcpy
    menu.o(i.mnu_dibujar_flag) refers to printf6.o(i.__0sprintf$6) for __2sprintf
    menu.o(i.mnu_dibujar_flag) refers to strcat.o(.text) for strcat
    menu.o(i.mnu_dibujar_flag) refers to main.o(i.disp_enviar) for disp_enviar
    menu.o(i.mnu_dibujar_flag) refers to menu.o(.data) for .data
    menu.o(i.mnu_dibujar_numero_clave) refers to strcpy.o(.text) for strcpy
    menu.o(i.mnu_dibujar_numero_clave) refers to strlen.o(.text) for strlen
    menu.o(i.mnu_dibujar_numero_clave) refers to strcat.o(.text) for strcat
    menu.o(i.mnu_dibujar_numero_clave) refers to main.o(i.disp_enviar) for disp_enviar
    menu.o(i.mnu_dibujar_numero_clave) refers to menu.o(.data) for .data
    menu.o(i.mnu_dibujar_numero_clave) refers to menu.o(.bss) for .bss
    menu.o(i.mnu_dummy_function_ger) refers to stm_my_lcd16x2.o(i.LCD_clear) for LCD_clear
    menu.o(i.mnu_dummy_function_ger) refers to fase.o(i.fase) for fase
    menu.o(i.mnu_dummy_function_ger) refers to main.o(.data) for date
    menu.o(i.mnu_dummy_function_hum) refers to stm_my_lcd16x2.o(i.LCD_clear) for LCD_clear
    menu.o(i.mnu_dummy_function_hum) refers to soilhumidity.o(i.getSoilHumidity) for getSoilHumidity
    menu.o(i.mnu_dummy_function_hum) refers to menu.o(i.mnu_SoilHumidity_periodica) for mnu_SoilHumidity_periodica
    menu.o(i.mnu_dummy_function_hum) refers to menu.o(i.mnu_salir) for mnu_salir
    menu.o(i.mnu_dummy_function_hum) refers to main.o(.data) for system
    menu.o(i.mnu_dummy_function_hum) refers to menu.o(.data) for .data
    menu.o(i.mnu_dummy_function_indfruct) refers to stm_my_lcd16x2.o(i.LCD_clear) for LCD_clear
    menu.o(i.mnu_dummy_function_indfruct) refers to fase.o(i.fase) for fase
    menu.o(i.mnu_dummy_function_indfruct) refers to main.o(.data) for date
    menu.o(i.mnu_dummy_function_light) refers to stm_my_lcd16x2.o(i.LCD_clear) for LCD_clear
    menu.o(i.mnu_dummy_function_light) refers to main.o(i.disp_enviar) for disp_enviar
    menu.o(i.mnu_dummy_function_light) refers to menu.o(i.mnu_light_periodica) for mnu_light_periodica
    menu.o(i.mnu_dummy_function_light) refers to menu.o(i.mnu_salir) for mnu_salir
    menu.o(i.mnu_dummy_function_light) refers to main.o(.data) for system
    menu.o(i.mnu_dummy_function_light) refers to menu.o(.data) for .data
    menu.o(i.mnu_dummy_function_no) refers to fase.o(i.fase) for fase
    menu.o(i.mnu_dummy_function_no) refers to stm_my_lcd16x2.o(i.LCD_clear) for LCD_clear
    menu.o(i.mnu_dummy_function_no) refers to main.o(.data) for date
    menu.o(i.mnu_dummy_function_pfruct) refers to stm_my_lcd16x2.o(i.LCD_clear) for LCD_clear
    menu.o(i.mnu_dummy_function_pfruct) refers to fase.o(i.fase) for fase
    menu.o(i.mnu_dummy_function_pfruct) refers to main.o(.data) for date
    menu.o(i.mnu_dummy_function_plfruct) refers to stm_my_lcd16x2.o(i.LCD_clear) for LCD_clear
    menu.o(i.mnu_dummy_function_plfruct) refers to fase.o(i.fase) for fase
    menu.o(i.mnu_dummy_function_plfruct) refers to main.o(.data) for date
    menu.o(i.mnu_dummy_function_restfruct) refers to stm_my_lcd16x2.o(i.LCD_clear) for LCD_clear
    menu.o(i.mnu_dummy_function_restfruct) refers to fase.o(i.fase) for fase
    menu.o(i.mnu_dummy_function_restfruct) refers to main.o(.data) for date
    menu.o(i.mnu_dummy_function_tank) refers to stm_my_lcd16x2.o(i.LCD_clear) for LCD_clear
    menu.o(i.mnu_dummy_function_tank) refers to main.o(i.disp_enviar) for disp_enviar
    menu.o(i.mnu_dummy_function_tank) refers to menu.o(i.mnu_levelTank_periodica) for mnu_levelTank_periodica
    menu.o(i.mnu_dummy_function_tank) refers to menu.o(i.mnu_salir) for mnu_salir
    menu.o(i.mnu_dummy_function_tank) refers to main.o(.data) for system
    menu.o(i.mnu_dummy_function_tank) refers to menu.o(.data) for .data
    menu.o(i.mnu_dummy_function_temp) refers to stm_my_lcd16x2.o(i.LCD_clear) for LCD_clear
    menu.o(i.mnu_dummy_function_temp) refers to menu.o(i.mnu_HumTemp_periodica) for mnu_HumTemp_periodica
    menu.o(i.mnu_dummy_function_temp) refers to menu.o(i.mnu_salir) for mnu_salir
    menu.o(i.mnu_dummy_function_temp) refers to main.o(.data) for system
    menu.o(i.mnu_dummy_function_temp) refers to menu.o(.data) for .data
    menu.o(i.mnu_efectos_clave) refers to menu.o(i.mnu_dibujar_numero_clave) for mnu_dibujar_numero_clave
    menu.o(i.mnu_efectos_clave) refers to menu.o(.data) for .data
    menu.o(i.mnu_efectos_clave) refers to menu.o(.bss) for .bss
    menu.o(i.mnu_efectos_elemento_menu) refers to strlen.o(.text) for strlen
    menu.o(i.mnu_efectos_elemento_menu) refers to menu.o(i.mnu_mostrar_menu_anterior) for mnu_mostrar_menu_anterior
    menu.o(i.mnu_efectos_elemento_menu) refers to menu.o(.data) for .data
    menu.o(i.mnu_efectos_fijar_flag) refers to menu.o(i.mnu_dibujar_flag) for mnu_dibujar_flag
    menu.o(i.mnu_efectos_fijar_flag) refers to menu.o(.data) for .data
    menu.o(i.mnu_efectos_mostrar_msj) refers to menu.o(i.mnu_mostrar_menu_anterior) for mnu_mostrar_menu_anterior
    menu.o(i.mnu_efectos_mostrar_msj) refers to menu.o(.data) for .data
    menu.o(i.mnu_ejecutar_funcion) refers to menu.o(.data) for .data
    menu.o(i.mnu_ejecutar_funcion_periodica) refers to menu.o(.data) for .data
    menu.o(i.mnu_establecer_funcion_ejecutar) refers to menu.o(.data) for .data
    menu.o(i.mnu_establecer_funcion_periodica_ejecutar) refers to menu.o(.data) for .data
    menu.o(i.mnu_eventos_clave) refers to menu.o(i.mnu_dibujar_numero_clave) for mnu_dibujar_numero_clave
    menu.o(i.mnu_eventos_clave) refers to menu.o(i.mnu_confirmar_clave) for mnu_confirmar_clave
    menu.o(i.mnu_eventos_clave) refers to menu.o(i.mnu_procesar_clave) for mnu_procesar_clave
    menu.o(i.mnu_eventos_clave) refers to printf6.o(i.__0sprintf$6) for __2sprintf
    menu.o(i.mnu_eventos_clave) refers to menu.o(i.mnu_fijar_clave) for mnu_fijar_clave
    menu.o(i.mnu_eventos_clave) refers to menu.o(.bss) for .bss
    menu.o(i.mnu_eventos_clave) refers to menu.o(.data) for .data
    menu.o(i.mnu_eventos_confirmar_clave) refers to menu.o(i.mnu_procesar_clave) for mnu_procesar_clave
    menu.o(i.mnu_eventos_confirmar_clave) refers to menu.o(i.mnu_mostrar_msj) for mnu_mostrar_msj
    menu.o(i.mnu_eventos_confirmar_clave) refers to menu.o(i.mnu_mostrar_menu_anterior) for mnu_mostrar_menu_anterior
    menu.o(i.mnu_eventos_confirmar_clave) refers to main.o(i.disp_enviar) for disp_enviar
    menu.o(i.mnu_eventos_confirmar_clave) refers to menu.o(.data) for .data
    menu.o(i.mnu_eventos_confirmar_guardar_flag) refers to menu.o(i.mnu_guardar_flag) for mnu_guardar_flag
    menu.o(i.mnu_eventos_confirmar_guardar_flag) refers to menu.o(i.mnu_mostrar_menu_anterior) for mnu_mostrar_menu_anterior
    menu.o(i.mnu_eventos_confirmar_guardar_flag) refers to main.o(i.disp_enviar) for disp_enviar
    menu.o(i.mnu_eventos_confirmar_guardar_flag) refers to menu.o(.data) for .data
    menu.o(i.mnu_eventos_fijar_flag) refers to menu.o(i.mnu_confirmar_guardar_flag) for mnu_confirmar_guardar_flag
    menu.o(i.mnu_eventos_fijar_flag) refers to menu.o(i.mnu_dibujar_flag) for mnu_dibujar_flag
    menu.o(i.mnu_eventos_fijar_flag) refers to menu.o(.data) for .data
    menu.o(i.mnu_eventos_mostrar_msj) refers to menu.o(i.mnu_mostrar_menu_anterior) for mnu_mostrar_menu_anterior
    menu.o(i.mnu_eventos_mostrar_msj) refers to menu.o(.data) for .data
    menu.o(i.mnu_eventos_submenu) refers to menu.o(i.mnu_mostrar_menu) for mnu_mostrar_menu
    menu.o(i.mnu_eventos_submenu) refers to menu.o(i.mnu_mostrar_menu_pass) for mnu_mostrar_menu_pass
    menu.o(i.mnu_eventos_submenu) refers to menu.o(i.mnu_cambio_seleccion) for mnu_cambio_seleccion
    menu.o(i.mnu_eventos_submenu) refers to menu.o(.data) for .data
    menu.o(i.mnu_fijar_clave) refers to memseta.o(.text) for __aeabi_memclr
    menu.o(i.mnu_fijar_clave) refers to main.o(i.disp_enviar) for disp_enviar
    menu.o(i.mnu_fijar_clave) refers to menu.o(i.mnu_dibujar_numero_clave) for mnu_dibujar_numero_clave
    menu.o(i.mnu_fijar_clave) refers to menu.o(.data) for .data
    menu.o(i.mnu_fijar_clave) refers to menu.o(.bss) for .bss
    menu.o(i.mnu_fijar_clave) refers to menu.o(i.mnu_eventos_clave) for mnu_eventos_clave
    menu.o(i.mnu_fijar_clave) refers to menu.o(i.mnu_efectos_clave) for mnu_efectos_clave
    menu.o(i.mnu_fijar_clave_init) refers to menu.o(i.mnu_fijar_clave) for mnu_fijar_clave
    menu.o(i.mnu_fijar_clave_init) refers to menu.o(.data) for .data
    menu.o(i.mnu_fijar_flag) refers to main.o(i.disp_enviar) for disp_enviar
    menu.o(i.mnu_fijar_flag) refers to menu.o(i.mnu_dibujar_flag) for mnu_dibujar_flag
    menu.o(i.mnu_fijar_flag) refers to menu.o(.data) for .data
    menu.o(i.mnu_fijar_flag) refers to menu.o(i.mnu_eventos_fijar_flag) for mnu_eventos_fijar_flag
    menu.o(i.mnu_fijar_flag) refers to menu.o(i.mnu_efectos_fijar_flag) for mnu_efectos_fijar_flag
    menu.o(i.mnu_guardar_flag) refers to menu.o(i.mnu_mostrar_msj) for mnu_mostrar_msj
    menu.o(i.mnu_levelTank_periodica) refers to printf6.o(i.__0sprintf$6) for __2sprintf
    menu.o(i.mnu_levelTank_periodica) refers to main.o(i.disp_enviar) for disp_enviar
    menu.o(i.mnu_levelTank_periodica) refers to menu.o(i.mnu_salir) for mnu_salir
    menu.o(i.mnu_levelTank_periodica) refers to main.o(.data) for system
    menu.o(i.mnu_levelTank_periodica) refers to main.o(.data) for sensorOptic
    menu.o(i.mnu_levelTank_periodica) refers to menu.o(.data) for .data
    menu.o(i.mnu_light_periodica) refers to light.o(i.getLight) for getLight
    menu.o(i.mnu_light_periodica) refers to printf6.o(i.__0sprintf$6) for __2sprintf
    menu.o(i.mnu_light_periodica) refers to main.o(i.disp_enviar) for disp_enviar
    menu.o(i.mnu_light_periodica) refers to menu.o(i.mnu_salir) for mnu_salir
    menu.o(i.mnu_light_periodica) refers to main.o(.data) for system
    menu.o(i.mnu_light_periodica) refers to menu.o(.data) for .data
    menu.o(i.mnu_mostrar_menu) refers to menu.o(i.mnu_dibujar_elemento_menu) for mnu_dibujar_elemento_menu
    menu.o(i.mnu_mostrar_menu) refers to menu.o(.data) for .data
    menu.o(i.mnu_mostrar_menu) refers to menu.o(i.mnu_eventos_submenu) for mnu_eventos_submenu
    menu.o(i.mnu_mostrar_menu_anterior) refers to menu.o(i.mnu_mostrar_menu) for mnu_mostrar_menu
    menu.o(i.mnu_mostrar_menu_anterior) refers to menu.o(.data) for .data
    menu.o(i.mnu_mostrar_menu_pass) refers to main.o(i.disp_enviar) for disp_enviar
    menu.o(i.mnu_mostrar_menu_pass) refers to menu.o(i.mnu_dibujar_numero_clave) for mnu_dibujar_numero_clave
    menu.o(i.mnu_mostrar_menu_pass) refers to menu.o(.data) for .data
    menu.o(i.mnu_mostrar_menu_pass) refers to menu.o(.bss) for .bss
    menu.o(i.mnu_mostrar_menu_pass) refers to menu.o(i.mnu_eventos_clave) for mnu_eventos_clave
    menu.o(i.mnu_mostrar_menu_pass) refers to menu.o(i.mnu_efectos_clave) for mnu_efectos_clave
    menu.o(i.mnu_mostrar_msj) refers to main.o(i.disp_enviar) for disp_enviar
    menu.o(i.mnu_mostrar_msj) refers to menu.o(.data) for .data
    menu.o(i.mnu_mostrar_msj) refers to menu.o(i.mnu_eventos_mostrar_msj) for mnu_eventos_mostrar_msj
    menu.o(i.mnu_mostrar_msj) refers to menu.o(i.mnu_efectos_mostrar_msj) for mnu_efectos_mostrar_msj
    menu.o(i.mnu_procesar_clave) refers to strlen.o(.text) for strlen
    menu.o(i.mnu_procesar_clave) refers to memcmp.o(.text) for memcmp
    menu.o(i.mnu_procesar_clave) refers to menu.o(i.mnu_mostrar_msj) for mnu_mostrar_msj
    menu.o(i.mnu_procesar_clave) refers to menu.o(i.mnu_mostrar_menu) for mnu_mostrar_menu
    menu.o(i.mnu_procesar_clave) refers to strcpy.o(.text) for strcpy
    menu.o(i.mnu_procesar_clave) refers to menu.o(.data) for .data
    menu.o(i.mnu_procesar_clave) refers to menu.o(.bss) for .bss
    menu.o(i.mnu_salir) refers to stm_my_lcd16x2.o(i.LCD_clear) for LCD_clear
    menu.o(i.mnu_salir) refers to stm32f4xx_hal.o(i.HAL_Delay) for HAL_Delay
    menu.o(i.mnu_salir) refers to main.o(.data) for cntHMI
    menu.o(.data) refers to menu.o(.conststring) for .conststring
    menu.o(.data) refers to menu.o(i.mnu_salir) for mnu_salir
    menu.o(.data) refers to menu.o(.data) for SubMenu1
    menu.o(.data) refers to menu.o(.data) for SubMenu2
    menu.o(.data) refers to menu.o(.conststring) for .conststring
    menu.o(.data) refers to menu.o(i.mnu_salir) for mnu_salir
    menu.o(.data) refers to menu.o(.data) for SubMenu3
    menu.o(.data) refers to menu.o(i.mnu_dummy_function_no) for mnu_dummy_function_no
    menu.o(.data) refers to menu.o(.conststring) for .conststring
    menu.o(.data) refers to menu.o(.data) for MenuPrincipal
    menu.o(.data) refers to menu.o(i.mnu_dummy_function_temp) for mnu_dummy_function_temp
    menu.o(.data) refers to menu.o(i.mnu_dummy_function_hum) for mnu_dummy_function_hum
    menu.o(.data) refers to menu.o(i.mnu_dummy_function_tank) for mnu_dummy_function_tank
    menu.o(.data) refers to menu.o(i.mnu_dummy_function_light) for mnu_dummy_function_light
    menu.o(.data) refers to menu.o(.conststring) for .conststring
    menu.o(.data) refers to menu.o(.data) for MenuPrincipal
    menu.o(.data) refers to menu.o(i.mnu_dummy_function) for mnu_dummy_function
    menu.o(.data) refers to menu.o(i.mnu_fijar_flag) for mnu_fijar_flag
    menu.o(.data) refers to menu.o(i.mnu_fijar_clave_init) for mnu_fijar_clave_init
    menu.o(.data) refers to menu.o(.conststring) for .conststring
    menu.o(.data) refers to menu.o(.data) for MenuPrincipal2
    menu.o(.data) refers to menu.o(i.mnu_dummy_function_ger) for mnu_dummy_function_ger
    menu.o(.data) refers to menu.o(i.mnu_dummy_function_pfruct) for mnu_dummy_function_pfruct
    menu.o(.data) refers to menu.o(i.mnu_dummy_function_indfruct) for mnu_dummy_function_indfruct
    menu.o(.data) refers to menu.o(i.mnu_dummy_function_plfruct) for mnu_dummy_function_plfruct
    menu.o(.data) refers to menu.o(i.mnu_dummy_function_restfruct) for mnu_dummy_function_restfruct
    menu.o(.data) refers to menu.o(.data) for MenuPrincipal
    controlambiental.o(i.controlAmbiental) refers to light.o(i.getLight) for getLight
    controlambiental.o(i.controlAmbiental) refers to stm32f4xx_hal_gpio.o(i.HAL_GPIO_WritePin) for HAL_GPIO_WritePin
    controlambiental.o(i.controlAmbiental) refers to fase.o(i.fase) for fase
    controlambiental.o(i.controlAmbiental) refers to tempamb.o(i.controlTempAmb) for controlTempAmb
    controlambiental.o(i.controlAmbiental) refers to tempcomp.o(i.controlTempComp) for controlTempComp
    controlambiental.o(i.controlAmbiental) refers to humcomp.o(i.controlHumComp) for controlHumComp
    controlambiental.o(i.controlAmbiental) refers to humamb.o(i.controlHumAmb) for controlHumAmb
    controlambiental.o(i.controlAmbiental) refers to tempmcu.o(i.tempSensor) for tempSensor
    controlambiental.o(i.controlAmbiental) refers to main.o(.data) for system
    controlambiental.o(i.controlAmbiental) refers to main.o(.data) for cntLight
    controlambiental.o(i.controlAmbiental) refers to main.o(.data) for sensorOptic
    controlambiental.o(i.controlAmbiental) refers to main.o(.data) for levelTank
    humamb.o(i.controlHumAmb) refers to stm32f4xx_hal_gpio.o(i.HAL_GPIO_WritePin) for HAL_GPIO_WritePin
    humamb.o(i.controlHumAmb) refers to at.o(i.CMGS) for CMGS
    humamb.o(i.controlHumAmb) refers to humamb.o(.data) for .data
    humamb.o(i.controlHumAmb) refers to main.o(.data) for humidity1
    humamb.o(i.controlHumAmb) refers to main.o(.data) for alertaHumLow
    humamb.o(i.controlHumAmb) refers to main.o(.data) for cntHum
    humamb.o(i.controlHumAmb) refers to main.o(.data) for countHum
    humcomp.o(i.controlHumComp) refers to stm32f4xx_hal_gpio.o(i.HAL_GPIO_WritePin) for HAL_GPIO_WritePin
    humcomp.o(i.controlHumComp) refers to main.o(.data) for hum1
    humcomp.o(i.controlHumComp) refers to humcomp.o(.data) for .data
    humcomp.o(i.controlHumComp) refers to main.o(.data) for sensorOptic
    humcomp.o(i.controlHumComp) refers to main.o(.data) for cntHumComp
    humtemp.o(i.getHumTemp) refers to memcpya.o(.text) for __aeabi_memcpy4
    humtemp.o(i.getHumTemp) refers to dht11.o(i.DHT11) for DHT11
    humtemp.o(i.getHumTemp) refers to dht11.o(i.read) for read
    humtemp.o(i.getHumTemp) refers to stm_my_lcd16x2.o(i.LCD_clear) for LCD_clear
    humtemp.o(i.getHumTemp) refers to stm32f4xx_hal.o(i.HAL_Delay) for HAL_Delay
    humtemp.o(i.getHumTemp) refers to main.o(i.disp_enviar) for disp_enviar
    humtemp.o(i.getHumTemp) refers to main.o(.data) for temperature1
    light.o(i.getLight) refers to main.o(.data) for buffer
    soilhumidity.o(i.getSoilHumidity) refers to dfltui.o(.text) for __aeabi_ui2d
    soilhumidity.o(i.getSoilHumidity) refers to dmul.o(.text) for __aeabi_dmul
    soilhumidity.o(i.getSoilHumidity) refers to dadd.o(.text) for __aeabi_drsub
    soilhumidity.o(i.getSoilHumidity) refers to dfixui.o(.text) for __aeabi_d2uiz
    soilhumidity.o(i.getSoilHumidity) refers to main.o(.data) for buffer
    soilhumidity.o(i.getSoilHumidity) refers to main.o(.data) for humTotal
    tempamb.o(i.controlTempAmb) refers to dht11.o(i.DHT11) for DHT11
    tempamb.o(i.controlTempAmb) refers to dht11.o(i.read) for read
    tempamb.o(i.controlTempAmb) refers to stm32f4xx_hal.o(i.HAL_Delay) for HAL_Delay
    tempamb.o(i.controlTempAmb) refers to stm32f4xx_hal_gpio.o(i.HAL_GPIO_WritePin) for HAL_GPIO_WritePin
    tempamb.o(i.controlTempAmb) refers to at.o(i.CMGS) for CMGS
    tempamb.o(i.controlTempAmb) refers to main.o(.data) for temperature2
    tempamb.o(i.controlTempAmb) refers to main.o(.data) for temperature11
    tempamb.o(i.controlTempAmb) refers to tempamb.o(.data) for .data
    tempamb.o(i.controlTempAmb) refers to main.o(.data) for alertaTempHigh
    tempamb.o(i.controlTempAmb) refers to main.o(.data) for cntAA
    tempamb.o(i.controlTempAmb) refers to main.o(.data) for cntHum
    tempamb.o(i.controlTempAmb) refers to main.o(.data) for countTemp
    tempamb.o(i.controlTempAmb) refers to main.o(.data) for alertaTempLow
    tempamb.o(i.controlTempAmb) refers to main.o(.data) for cntLight
    tempcomp.o(i.controlTempComp) refers to main.o(i.ReportTemperature) for ReportTemperature
    tempcomp.o(i.controlTempComp) refers to stm32f4xx_hal_gpio.o(i.HAL_GPIO_WritePin) for HAL_GPIO_WritePin
    tempcomp.o(i.controlTempComp) refers to main.o(.data) for tempComp1
    tempcomp.o(i.controlTempComp) refers to tempcomp.o(.data) for .data
    tempcomp.o(i.controlTempComp) refers to main.o(.data) for cntHumComp
    tempcomp.o(i.controlTempComp) refers to main.o(.data) for sensorOptic
    tempcomp.o(i.controlTempComp) refers to main.o(.data) for cntAA
    ctrlfase.o(i.cultivation) refers to main.o(.data) for setDate
    tempmcu.o(i.tempSensor) refers to stm32f4xx_hal_gpio.o(i.HAL_GPIO_WritePin) for HAL_GPIO_WritePin
    tempmcu.o(i.tempSensor) refers to stm_my_lcd16x2.o(i.LCD_clear) for LCD_clear
    tempmcu.o(i.tempSensor) refers to stm32f4xx_hal.o(i.HAL_Delay) for HAL_Delay
    tempmcu.o(i.tempSensor) refers to main.o(i.disp_enviar) for disp_enviar
    tempmcu.o(i.tempSensor) refers to main.o(.data) for tempSensorMCU
    tempmcu.o(i.tempSensor) refers to main.o(.data) for V25
    tempmcu.o(i.tempSensor) refers to main.o(.data) for Avg_Slope
    tempmcu.o(i.tempSensor) refers to main.o(.data) for alertaTempMcuHigh
    at.o(i.AT_tramaParse) refers to at.o(.data) for .data
    at.o(i.CBAND) refers to fibocom.o(i.Module_Write_str) for Module_Write_str
    at.o(i.CBAND) refers to at.o(.data) for .data
    at.o(i.CBC) refers to fibocom.o(i.Module_Write_str) for Module_Write_str
    at.o(i.CBC) refers to at.o(.data) for .data
    at.o(i.CCLK) refers to fibocom.o(i.Module_Write_str) for Module_Write_str
    at.o(i.CCLK) refers to at.o(.data) for .data
    at.o(i.CFUN) refers to fibocom.o(i.Module_Write_str) for Module_Write_str
    at.o(i.CFUN) refers to at.o(.data) for .data
    at.o(i.CGATT) refers to fibocom.o(i.Module_Write_str) for Module_Write_str
    at.o(i.CGATT) refers to at.o(.data) for .data
    at.o(i.CGREG) refers to fibocom.o(i.Module_Write_str) for Module_Write_str
    at.o(i.CGREG) refers to at.o(.data) for .data
    at.o(i.CGSN) refers to fibocom.o(i.Module_Write_str) for Module_Write_str
    at.o(i.CGSN) refers to at.o(.data) for .data
    at.o(i.CIFSR) refers to fibocom.o(i.Module_Write_str) for Module_Write_str
    at.o(i.CIFSR) refers to at.o(.data) for .data
    at.o(i.CIICR) refers to fibocom.o(i.Module_Write_str) for Module_Write_str
    at.o(i.CIICR) refers to at.o(.data) for .data
    at.o(i.CIPGSMLOC) refers to fibocom.o(i.Module_Write_str) for Module_Write_str
    at.o(i.CIPGSMLOC) refers to at.o(.data) for .data
    at.o(i.CIPPING) refers to fibocom.o(i.Module_Write_str) for Module_Write_str
    at.o(i.CIPPING) refers to at.o(.data) for .data
    at.o(i.CMGD) refers to fibocom.o(i.Module_Write_str) for Module_Write_str
    at.o(i.CMGD) refers to at.o(.data) for .data
    at.o(i.CMGF) refers to fibocom.o(i.Module_Write_str) for Module_Write_str
    at.o(i.CMGF) refers to at.o(.data) for .data
    at.o(i.CMGL) refers to fibocom.o(i.Module_Write_str) for Module_Write_str
    at.o(i.CMGL) refers to at.o(.data) for .data
    at.o(i.CMGR) refers to fibocom.o(i.Module_Write_str) for Module_Write_str
    at.o(i.CMGR) refers to at.o(.data) for .data
    at.o(i.CMGS) refers to fibocom.o(i.Module_Write_str) for Module_Write_str
    at.o(i.CMGS) refers to at.o(.data) for .data
    at.o(i.CMTE) refers to fibocom.o(i.Module_Write_str) for Module_Write_str
    at.o(i.CMTE) refers to at.o(.data) for .data
    at.o(i.COPS) refers to fibocom.o(i.Module_Write_str) for Module_Write_str
    at.o(i.COPS) refers to at.o(.data) for .data
    at.o(i.CPIN) refers to fibocom.o(i.Module_Write_str) for Module_Write_str
    at.o(i.CPIN) refers to at.o(.data) for .data
    at.o(i.CPMS) refers to fibocom.o(i.Module_Write_str) for Module_Write_str
    at.o(i.CPMS) refers to at.o(.data) for .data
    at.o(i.CPOWD) refers to fibocom.o(i.Module_Write_str) for Module_Write_str
    at.o(i.CPOWD) refers to at.o(.data) for .data
    at.o(i.CREG) refers to fibocom.o(i.Module_Write_str) for Module_Write_str
    at.o(i.CREG) refers to at.o(.data) for .data
    at.o(i.CSCS) refers to fibocom.o(i.Module_Write_str) for Module_Write_str
    at.o(i.CSCS) refers to at.o(.data) for .data
    at.o(i.CSDH) refers to fibocom.o(i.Module_Write_str) for Module_Write_str
    at.o(i.CSDH) refers to at.o(.data) for .data
    at.o(i.CSQ) refers to fibocom.o(i.Module_Write_str) for Module_Write_str
    at.o(i.CSQ) refers to at.o(.data) for .data
    at.o(i.CSTT) refers to fibocom.o(i.Module_Write_str) for Module_Write_str
    at.o(i.CSTT) refers to at.o(.data) for .data
    at.o(i.CSTT2) refers to fibocom.o(i.Module_Write_str) for Module_Write_str
    at.o(i.CSTT2) refers to at.o(.data) for .data
    at.o(i.CheckATResponse) refers to memseta.o(.text) for __aeabi_memclr4
    at.o(i.CheckATResponse) refers to at.o(i.ParseAt) for ParseAt
    at.o(i.CheckATResponse) refers to at.o(i._AT_hash) for _AT_hash
    at.o(i.CheckATResponse) refers to strcmp.o(.text) for strcmp
    at.o(i.CheckATResponse) refers to at.o(.bss) for .bss
    at.o(i.CheckATResponse) refers to at.o(.data) for .data
    at.o(i.Cmd_AT) refers to fibocom.o(i.Module_Write_str) for Module_Write_str
    at.o(i.Cmd_AT) refers to at.o(.data) for .data
    at.o(i.Cmd_ATA) refers to fibocom.o(i.Module_Write_str) for Module_Write_str
    at.o(i.Cmd_ATA) refers to at.o(.data) for .data
    at.o(i.Cmd_ATE) refers to fibocom.o(i.Module_Write_str) for Module_Write_str
    at.o(i.Cmd_ATE) refers to at.o(.data) for .data
    at.o(i.Cmd_ATH) refers to fibocom.o(i.Module_Write_str) for Module_Write_str
    at.o(i.Cmd_ATH) refers to at.o(.data) for .data
    at.o(i.Cmd_ATI) refers to fibocom.o(i.Module_Write_str) for Module_Write_str
    at.o(i.Cmd_ATI) refers to at.o(.data) for .data
    at.o(i.Cmd_ATW) refers to fibocom.o(i.Module_Write_str) for Module_Write_str
    at.o(i.Cmd_ATW) refers to at.o(.data) for .data
    at.o(i.FTPCLOSE) refers to fibocom.o(i.Module_Write_str) for Module_Write_str
    at.o(i.FTPCLOSE) refers to at.o(.data) for .data
    at.o(i.FTPCWD) refers to fibocom.o(i.Module_Write_str) for Module_Write_str
    at.o(i.FTPCWD) refers to at.o(.data) for .data
    at.o(i.FTPDEL) refers to fibocom.o(i.Module_Write_str) for Module_Write_str
    at.o(i.FTPDEL) refers to at.o(.data) for .data
    at.o(i.FTPOPEN) refers to fibocom.o(i.Module_Write_str) for Module_Write_str
    at.o(i.FTPOPEN) refers to at.o(.data) for .data
    at.o(i.FTPRETR) refers to fibocom.o(i.Module_Write_str) for Module_Write_str
    at.o(i.FTPRETR) refers to at.o(.data) for .data
    at.o(i.FTPSTOR) refers to fibocom.o(i.Module_Write_str) for Module_Write_str
    at.o(i.FTPSTOR) refers to at.o(.data) for .data
    at.o(i.GSV) refers to fibocom.o(i.Module_Write_str) for Module_Write_str
    at.o(i.GSV) refers to at.o(.data) for .data
    at.o(i.IPR) refers to fibocom.o(i.Module_Write_str) for Module_Write_str
    at.o(i.IPR) refers to at.o(.data) for .data
    at.o(i.MIPCALL) refers to fibocom.o(i.Module_Write_str) for Module_Write_str
    at.o(i.MIPCALL) refers to at.o(.data) for .data
    at.o(i.MIPCLOSE) refers to fibocom.o(i.Module_Write_str) for Module_Write_str
    at.o(i.MIPCLOSE) refers to at.o(.data) for .data
    at.o(i.MIPOPEN) refers to fibocom.o(i.Module_Write_str) for Module_Write_str
    at.o(i.MIPOPEN) refers to at.o(.data) for .data
    at.o(i.MIPSEND) refers to fibocom.o(i.Module_Write_str) for Module_Write_str
    at.o(i.MIPSEND) refers to at.o(.data) for .data
    at.o(i.MIPSETS) refers to fibocom.o(i.Module_Write_str) for Module_Write_str
    at.o(i.MIPSETS) refers to at.o(.data) for .data
    at.o(i.MPING) refers to fibocom.o(i.Module_Write_str) for Module_Write_str
    at.o(i.MPING) refers to at.o(.data) for .data
    at.o(i.MSJ) refers to fibocom.o(i.Module_Write_str) for Module_Write_str
    at.o(i.ParseAt) refers to memseta.o(.text) for __aeabi_memclr4
    at.o(i.ParseAt) refers to strtok.o(.text) for strtok
    at.o(i.SAPBR) refers to fibocom.o(i.Module_Write_str) for Module_Write_str
    at.o(i.SAPBR) refers to at.o(.data) for .data
    at.o(i.SAPBRCONFG) refers to fibocom.o(i.Module_Write_str) for Module_Write_str
    at.o(i.SAPBRCONFG) refers to at.o(.data) for .data
    at.o(i.at_parser_store) refers to memseta.o(.text) for __aeabi_memclr4
    at.o(i.at_parser_store) refers to at.o(i._AT_hash) for _AT_hash
    at.o(i.at_parser_store) refers to strncpy.o(.text) for strncpy
    at.o(i.at_parser_store) refers to strlen.o(.text) for strlen
    at.o(i.at_parser_store) refers to memcpya.o(.text) for __aeabi_memcpy4
    at.o(i.at_parser_store) refers to at.o(.data) for .data
    at.o(i.at_parser_store) refers to at.o(.bss) for .bss
    fibocom.o(i.HAL_UART_RxCpltCallback) refers to stm32f4xx_hal_uart.o(i.HAL_UART_Receive_IT) for HAL_UART_Receive_IT
    fibocom.o(i.HAL_UART_RxCpltCallback) refers to fibocom.o(.data) for .data
    fibocom.o(i.HAL_UART_RxCpltCallback) refers to main.o(.bss) for huart6
    fibocom.o(i.HAL_UART_RxCpltCallback) refers to main.o(.data) for process
    fibocom.o(i.Module_Write) refers to stm32f4xx_hal_uart.o(i.HAL_UART_Transmit_IT) for HAL_UART_Transmit_IT
    fibocom.o(i.Module_Write) refers to main.o(.bss) for huart6
    fibocom.o(i.Module_Write_str) refers to strlen.o(.text) for strlen
    fibocom.o(i.Module_Write_str) refers to stm32f4xx_hal_uart.o(i.HAL_UART_Transmit_IT) for HAL_UART_Transmit_IT
    fibocom.o(i.Module_Write_str) refers to main.o(.bss) for huart6
    fibocom.o(i.fibocom_bsp_init) refers to stm32f4xx_hal_uart.o(i.HAL_UART_Receive_IT) for HAL_UART_Receive_IT
    fibocom.o(i.fibocom_bsp_init) refers to fibocom.o(.data) for .data
    fibocom.o(i.fibocom_bsp_init) refers to main.o(.bss) for huart6
    funcioninicializacion.o(i.Inicializacion) refers to at.o(i.Cmd_ATE) for Cmd_ATE
    funcioninicializacion.o(i.Inicializacion) refers to stm32f4xx_hal.o(i.HAL_Delay) for HAL_Delay
    funcioninicializacion.o(i.Inicializacion) refers to at.o(i.Cmd_AT) for Cmd_AT
    funcioninicializacion.o(i.Inicializacion) refers to at.o(i.IPR) for IPR
    funcioninicializacion.o(i.Inicializacion) refers to at.o(i.CMTE) for CMTE
    funcioninicializacion.o(i.Inicializacion) refers to at.o(i.CFUN) for CFUN
    funcioninicializacion.o(i.Inicializacion) refers to at.o(i.CREG) for CREG
    funcioninicializacion.o(i.Inicializacion) refers to at.o(i.COPS) for COPS
    funcioninicializacion.o(i.Inicializacion) refers to funcioninicializacion.o(.data) for .data
    funcioninicializacion.o(i.Inicializacion) refers to main.o(.bss) for buffRx
    confggsm.o(i.initGSM) refers to at.o(i.CMGF) for CMGF
    confggsm.o(i.initGSM) refers to stm32f4xx_hal.o(i.HAL_Delay) for HAL_Delay
    confggsm.o(i.initGSM) refers to at.o(i.CSCS) for CSCS
    confggsm.o(i.initGSM) refers to at.o(i.CMGD) for CMGD
    confggsm.o(i.initGSM) refers to confggsm.o(.data) for .data
    confggsm.o(i.initGSM) refers to main.o(.bss) for buffRx
    confggprs.o(i.initGPRS) refers to at.o(i.CGATT) for CGATT
    confggprs.o(i.initGPRS) refers to stm32f4xx_hal.o(i.HAL_Delay) for HAL_Delay
    confggprs.o(i.initGPRS) refers to at.o(i.CGREG) for CGREG
    confggprs.o(i.initGPRS) refers to at.o(i.CSTT2) for CSTT2
    confggprs.o(i.initGPRS) refers to at.o(i.CIICR) for CIICR
    confggprs.o(i.initGPRS) refers to at.o(i.CIFSR) for CIFSR
    confggprs.o(i.initGPRS) refers to at.o(i.SAPBRCONFG) for SAPBRCONFG
    confggprs.o(i.initGPRS) refers to at.o(i.SAPBR) for SAPBR
    confggprs.o(i.initGPRS) refers to confggprs.o(.data) for .data
    confggprs.o(i.initGPRS) refers to main.o(.bss) for buffRx
    responsesms.o(i.SMSquery) refers to at.o(i.CMGR) for CMGR
    responsesms.o(i.SMSquery) refers to stm32f4xx_hal.o(i.HAL_Delay) for HAL_Delay
    responsesms.o(i.SMSquery) refers to at.o(i.CMGD) for CMGD
    responsesms.o(i.SMSquery) refers to main.o(.bss) for buffRx
    responsesms.o(i.SMSquery) refers to main.o(.data) for alertaHumLow
    responsesms.o(i.SMSquery) refers to main.o(.data) for numeroTelefonico
    responsesms.o(i.SMSquery) refers to main.o(.data) for temperaturaAmbiental
    responsesms.o(i.SMSquery) refers to sendmessage.o(i.Send) for Send
    responsesms.o(i.SMSquery) refers to main.o(.data) for iluminacion
    responsesms.o(i.SMSquery) refers to main.o(.data) for nivelTanque
    responsesms.o(i.SMSquery) refers to main.o(.data) for errorMsj
    responsesms.o(i.SMSquery) refers to main.o(.data) for alertaHumBaja
    responsesms.o(i.SMSquery) refers to main.o(.data) for numeroTelefonicoAlertas
    responsesms.o(i.SMSquery) refers to main.o(.data) for alertaTempLow
    responsesms.o(i.SMSquery) refers to main.o(.data) for alertaTempBaja
    responsesms.o(i.SMSquery) refers to main.o(.data) for alertaTempHigh
    responsesms.o(i.SMSquery) refers to main.o(.data) for alertaTempAlta
    responsesms.o(i.SMSquery) refers to main.o(.data) for alertaTempMcuHigh
    responsesms.o(i.SMSquery) refers to main.o(.data) for alertaTempMCU
    sendmessage.o(i.Send) refers to at.o(i.CMGS) for CMGS
    sendmessage.o(i.Send) refers to stm32f4xx_hal.o(i.HAL_Delay) for HAL_Delay
    sendmessage.o(i.Send) refers to at.o(i.MSJ) for MSJ
    sendmessage.o(i.Send) refers to main.o(.bss) for buffRx
    gethttp.o(i.GETHTTP) refers to fibocom.o(i.Module_Write_str) for Module_Write_str
    gethttp.o(i.GETHTTP) refers to stm32f4xx_hal.o(i.HAL_Delay) for HAL_Delay
    gethttp.o(i.GETHTTP) refers to gethttp.o(.data) for .data
    gethttp.o(i.GETHTTP) refers to main.o(.bss) for buffRx
    gethttp.o(i.GETHTTP) refers to main.o(.bss) for buffRxRead
    posthttp.o(i.POSTHTTP) refers to fibocom.o(i.Module_Write_str) for Module_Write_str
    posthttp.o(i.POSTHTTP) refers to stm32f4xx_hal.o(i.HAL_Delay) for HAL_Delay
    posthttp.o(i.POSTHTTP) refers to posthttp.o(.data) for .data
    posthttp.o(i.POSTHTTP) refers to main.o(.data) for b_firstRound
    posthttp.o(i.POSTHTTP) refers to main.o(.bss) for buffRx
    system_stm32f4xx.o(i.SystemCoreClockUpdate) refers to system_stm32f4xx.o(.data) for .data
    system_stm32f4xx.o(i.SystemCoreClockUpdate) refers to system_stm32f4xx.o(.constdata) for .constdata
    main.o(i.MX_ADC1_Init) refers to stm32f4xx_hal_adc.o(i.HAL_ADC_Init) for HAL_ADC_Init
    main.o(i.MX_ADC1_Init) refers to stm32f4xx_hal_adc.o(i.HAL_ADC_ConfigChannel) for HAL_ADC_ConfigChannel
    main.o(i.MX_ADC1_Init) refers to main.o(.bss) for .bss
    main.o(i.MX_GPIO_Init) refers to stm32f4xx_hal_gpio.o(i.HAL_GPIO_WritePin) for HAL_GPIO_WritePin
    main.o(i.MX_GPIO_Init) refers to stm32f4xx_hal_gpio.o(i.HAL_GPIO_Init) for HAL_GPIO_Init
    main.o(i.MX_GPIO_Init) refers to stm32f4xx_hal_cortex.o(i.HAL_NVIC_SetPriority) for HAL_NVIC_SetPriority
    main.o(i.MX_GPIO_Init) refers to stm32f4xx_hal_cortex.o(i.HAL_NVIC_EnableIRQ) for HAL_NVIC_EnableIRQ
    main.o(i.MX_RTC_Init) refers to stm32f4xx_hal_rtc.o(i.HAL_RTC_Init) for HAL_RTC_Init
    main.o(i.MX_RTC_Init) refers to stm32f4xx_hal_rtc_ex.o(i.HAL_RTCEx_BKUPRead) for HAL_RTCEx_BKUPRead
    main.o(i.MX_RTC_Init) refers to stm32f4xx_hal_rtc.o(i.HAL_RTC_SetTime) for HAL_RTC_SetTime
    main.o(i.MX_RTC_Init) refers to stm32f4xx_hal_rtc.o(i.HAL_RTC_SetDate) for HAL_RTC_SetDate
    main.o(i.MX_RTC_Init) refers to stm32f4xx_hal_rtc_ex.o(i.HAL_RTCEx_BKUPWrite) for HAL_RTCEx_BKUPWrite
    main.o(i.MX_RTC_Init) refers to main.o(.bss) for .bss
    main.o(i.MX_TIM2_Init) refers to stm32f4xx_hal_tim.o(i.HAL_TIM_Base_Init) for HAL_TIM_Base_Init
    main.o(i.MX_TIM2_Init) refers to stm32f4xx_hal_tim.o(i.HAL_TIM_ConfigClockSource) for HAL_TIM_ConfigClockSource
    main.o(i.MX_TIM2_Init) refers to stm32f4xx_hal_tim_ex.o(i.HAL_TIMEx_MasterConfigSynchronization) for HAL_TIMEx_MasterConfigSynchronization
    main.o(i.MX_TIM2_Init) refers to main.o(.bss) for .bss
    main.o(i.MX_TIM5_Init) refers to stm32f4xx_hal_tim.o(i.HAL_TIM_Base_Init) for HAL_TIM_Base_Init
    main.o(i.MX_TIM5_Init) refers to stm32f4xx_hal_tim.o(i.HAL_TIM_ConfigClockSource) for HAL_TIM_ConfigClockSource
    main.o(i.MX_TIM5_Init) refers to stm32f4xx_hal_tim_ex.o(i.HAL_TIMEx_MasterConfigSynchronization) for HAL_TIMEx_MasterConfigSynchronization
    main.o(i.MX_TIM5_Init) refers to main.o(.bss) for .bss
    main.o(i.OneWire_Init) refers to dht11.o(i.pinMode) for pinMode
    main.o(i.ReportTemperature) refers to main.o(i.SendInitialization) for SendInitialization
    main.o(i.ReportTemperature) refers to main.o(i.delay_us) for delay_us
    main.o(i.ReportTemperature) refers to main.o(i.SendByte) for SendByte
    main.o(i.ReportTemperature) refers to stm32f4xx_hal.o(i.HAL_Delay) for HAL_Delay
    main.o(i.ReportTemperature) refers to dht11.o(i.pinMode) for pinMode
    main.o(i.ReportTemperature) refers to stm32f4xx_hal_gpio.o(i.HAL_GPIO_WritePin) for HAL_GPIO_WritePin
    main.o(i.ReportTemperature) refers to stm32f4xx_hal_gpio.o(i.HAL_GPIO_ReadPin) for HAL_GPIO_ReadPin
    main.o(i.ReportTemperature) refers to main.o(i.crc8) for crc8
    main.o(i.ReportTemperature) refers to main.o(.data) for .data
    main.o(i.SendByte) refers to dht11.o(i.pinMode) for pinMode
    main.o(i.SendByte) refers to stm32f4xx_hal_gpio.o(i.HAL_GPIO_WritePin) for HAL_GPIO_WritePin
    main.o(i.SendByte) refers to main.o(i.delay_us) for delay_us
    main.o(i.SendInitialization) refers to stm32f4xx_hal_gpio.o(i.HAL_GPIO_WritePin) for HAL_GPIO_WritePin
    main.o(i.SendInitialization) refers to dht11.o(i.pinMode) for pinMode
    main.o(i.SendInitialization) refers to main.o(i.delay_us) for delay_us
    main.o(i.SystemClock_Config) refers to stm32f4xx_hal_rcc.o(i.HAL_RCC_OscConfig) for HAL_RCC_OscConfig
    main.o(i.SystemClock_Config) refers to stm32f4xx_hal_rcc.o(i.HAL_RCC_ClockConfig) for HAL_RCC_ClockConfig
    main.o(i.SystemClock_Config) refers to stm32f4xx_hal_rcc_ex.o(i.HAL_RCCEx_PeriphCLKConfig) for HAL_RCCEx_PeriphCLKConfig
    main.o(i.SystemClock_Config) refers to stm32f4xx_hal_rcc.o(i.HAL_RCC_GetHCLKFreq) for HAL_RCC_GetHCLKFreq
    main.o(i.SystemClock_Config) refers to stm32f4xx_hal_cortex.o(i.HAL_SYSTICK_Config) for HAL_SYSTICK_Config
    main.o(i.SystemClock_Config) refers to stm32f4xx_hal_cortex.o(i.HAL_SYSTICK_CLKSourceConfig) for HAL_SYSTICK_CLKSourceConfig
    main.o(i.SystemClock_Config) refers to stm32f4xx_hal_cortex.o(i.HAL_NVIC_SetPriority) for HAL_NVIC_SetPriority
    main.o(i.crc8) refers to main.o(.data) for .data
    main.o(i.dateRTC) refers to stm32f4xx_hal_rtc.o(i.HAL_RTC_GetDate) for HAL_RTC_GetDate
    main.o(i.dateRTC) refers to main.o(i.disp_enviar) for disp_enviar
    main.o(i.dateRTC) refers to main.o(.data) for .data
    main.o(i.dateRTC) refers to main.o(.bss) for .bss
    main.o(i.delay_us) refers to main.o(i.micros) for micros
    main.o(i.disp_enviar) refers to strlen.o(.text) for strlen
    main.o(i.disp_enviar) refers to stm_my_lcd16x2.o(i.LCD_setCursor) for LCD_setCursor
    main.o(i.disp_enviar) refers to stm_my_lcd16x2.o(i.LCD_writeChar) for LCD_writeChar
    main.o(i.disp_enviar) refers to stm32f4xx_hal.o(i.HAL_Delay) for HAL_Delay
    main.o(i.main) refers to stm32f4xx_hal.o(i.HAL_Init) for HAL_Init
    main.o(i.main) refers to main.o(i.SystemClock_Config) for SystemClock_Config
    main.o(i.main) refers to main.o(i.MX_GPIO_Init) for MX_GPIO_Init
    main.o(i.main) refers to stm32f4xx_hal_cortex.o(i.HAL_NVIC_SetPriority) for HAL_NVIC_SetPriority
    main.o(i.main) refers to stm32f4xx_hal_cortex.o(i.HAL_NVIC_EnableIRQ) for HAL_NVIC_EnableIRQ
    main.o(i.main) refers to main.o(i.MX_ADC1_Init) for MX_ADC1_Init
    main.o(i.main) refers to stm32f4xx_hal_uart.o(i.HAL_UART_Init) for HAL_UART_Init
    main.o(i.main) refers to main.o(i.MX_TIM5_Init) for MX_TIM5_Init
    main.o(i.main) refers to main.o(i.MX_TIM2_Init) for MX_TIM2_Init
    main.o(i.main) refers to stm32f4xx_hal_gpio.o(i.HAL_GPIO_WritePin) for HAL_GPIO_WritePin
    main.o(i.main) refers to stm_my_lcd16x2.o(i.LCD_begin4BIT) for LCD_begin4BIT
    main.o(i.main) refers to stm_my_lcd16x2.o(i.LCD_clear) for LCD_clear
    main.o(i.main) refers to stm_my_lcd16x2.o(i.LCD_noCursor) for LCD_noCursor
    main.o(i.main) refers to stm32f4xx_hal.o(i.HAL_Delay) for HAL_Delay
    main.o(i.main) refers to fibocom.o(i.fibocom_bsp_init) for fibocom_bsp_init
    main.o(i.main) refers to main.o(i.disp_enviar) for disp_enviar
    main.o(i.main) refers to funcioninicializacion.o(i.Inicializacion) for Inicializacion
    main.o(i.main) refers to confggsm.o(i.initGSM) for initGSM
    main.o(i.main) refers to confggprs.o(i.initGPRS) for initGPRS
    main.o(i.main) refers to at.o(i.CIPGSMLOC) for CIPGSMLOC
    main.o(i.main) refers to main.o(i.MX_RTC_Init) for MX_RTC_Init
    main.o(i.main) refers to stm32f4xx_hal_pwr.o(i.HAL_PWR_EnableBkUpAccess) for HAL_PWR_EnableBkUpAccess
    main.o(i.main) refers to main.o(i.dateRTC) for dateRTC
    main.o(i.main) refers to main.o(i.timeRTC) for timeRTC
    main.o(i.main) refers to stm32f4xx_hal_adc.o(i.HAL_ADC_Start_DMA) for HAL_ADC_Start_DMA
    main.o(i.main) refers to stm32f4xx_hal_tim.o(i.HAL_TIM_Base_Start) for HAL_TIM_Base_Start
    main.o(i.main) refers to stm32f4xx_hal_tim.o(i.HAL_TIM_Base_Start_IT) for HAL_TIM_Base_Start_IT
    main.o(i.main) refers to main.o(.bss) for .bss
    main.o(i.main) refers to main.o(.data) for .data
    main.o(i.main) refers to tempmcu.o(i.tempSensor) for tempSensor
    main.o(i.main) refers to menu.o(i.mnu_mostrar_menu) for mnu_mostrar_menu
    main.o(i.main) refers to ctrlfase.o(i.cultivation) for cultivation
    main.o(i.main) refers to dht11.o(i.DHT11) for DHT11
    main.o(i.main) refers to dht11.o(i.read) for read
    main.o(i.main) refers to main.o(i.ReportTemperature) for ReportTemperature
    main.o(i.main) refers to menu.o(.data) for MenuPrincipal2
    main.o(i.main) refers to soilhumidity.o(i.getSoilHumidity) for getSoilHumidity
    main.o(i.main) refers to at.o(i.CMTE) for CMTE
    main.o(i.main) refers to controlambiental.o(i.controlAmbiental) for controlAmbiental
    main.o(i.main) refers to stm32f4xx_hal_tim.o(i.HAL_TIM_Base_Stop_IT) for HAL_TIM_Base_Stop_IT
    main.o(i.main) refers to posthttp.o(i.POSTHTTP) for POSTHTTP
    main.o(i.main) refers to responsesms.o(i.SMSquery) for SMSquery
    main.o(i.main) refers to at.o(i.Cmd_ATA) for Cmd_ATA
    main.o(i.main) refers to at.o(i.Cmd_ATH) for Cmd_ATH
    main.o(i.main) refers to fase.o(i.fase) for fase
    main.o(i.main) refers to menu.o(i.mnu_ejecutar_funcion) for mnu_ejecutar_funcion
    main.o(i.main) refers to stm32f4xx_hal.o(i.HAL_GetTick) for HAL_GetTick
    main.o(i.main) refers to menu.o(i.mnu_ejecutar_funcion_periodica) for mnu_ejecutar_funcion_periodica
    main.o(i.main) refers to menu.o(.data) for MenuPrincipal
    main.o(i.micros) refers to main.o(.bss) for .bss
    main.o(i.timeRTC) refers to stm32f4xx_hal_rtc.o(i.HAL_RTC_GetTime) for HAL_RTC_GetTime
    main.o(i.timeRTC) refers to main.o(i.disp_enviar) for disp_enviar
    main.o(i.timeRTC) refers to main.o(.bss) for .bss
    main.o(i.timeRTC) refers to main.o(.data) for .data
    stm32f4xx_hal_msp.o(i.HAL_ADC_MspDeInit) refers to stm32f4xx_hal_gpio.o(i.HAL_GPIO_DeInit) for HAL_GPIO_DeInit
    stm32f4xx_hal_msp.o(i.HAL_ADC_MspDeInit) refers to stm32f4xx_hal_dma.o(i.HAL_DMA_DeInit) for HAL_DMA_DeInit
    stm32f4xx_hal_msp.o(i.HAL_ADC_MspInit) refers to stm32f4xx_hal_gpio.o(i.HAL_GPIO_Init) for HAL_GPIO_Init
    stm32f4xx_hal_msp.o(i.HAL_ADC_MspInit) refers to stm32f4xx_hal_dma.o(i.HAL_DMA_Init) for HAL_DMA_Init
    stm32f4xx_hal_msp.o(i.HAL_ADC_MspInit) refers to main.o(i._Error_Handler) for _Error_Handler
    stm32f4xx_hal_msp.o(i.HAL_ADC_MspInit) refers to main.o(.bss) for hdma_adc1
    stm32f4xx_hal_msp.o(i.HAL_MspInit) refers to stm32f4xx_hal_cortex.o(i.HAL_NVIC_SetPriorityGrouping) for HAL_NVIC_SetPriorityGrouping
    stm32f4xx_hal_msp.o(i.HAL_MspInit) refers to stm32f4xx_hal_cortex.o(i.HAL_NVIC_SetPriority) for HAL_NVIC_SetPriority
    stm32f4xx_hal_msp.o(i.HAL_MspInit) refers to stm32f4xx_hal_cortex.o(i.HAL_NVIC_EnableIRQ) for HAL_NVIC_EnableIRQ
    stm32f4xx_hal_msp.o(i.HAL_TIM_Base_MspDeInit) refers to stm32f4xx_hal_cortex.o(i.HAL_NVIC_DisableIRQ) for HAL_NVIC_DisableIRQ
    stm32f4xx_hal_msp.o(i.HAL_TIM_Base_MspInit) refers to stm32f4xx_hal_cortex.o(i.HAL_NVIC_SetPriority) for HAL_NVIC_SetPriority
    stm32f4xx_hal_msp.o(i.HAL_TIM_Base_MspInit) refers to stm32f4xx_hal_cortex.o(i.HAL_NVIC_EnableIRQ) for HAL_NVIC_EnableIRQ
    stm32f4xx_hal_msp.o(i.HAL_UART_MspDeInit) refers to stm32f4xx_hal_gpio.o(i.HAL_GPIO_DeInit) for HAL_GPIO_DeInit
    stm32f4xx_hal_msp.o(i.HAL_UART_MspDeInit) refers to stm32f4xx_hal_cortex.o(i.HAL_NVIC_DisableIRQ) for HAL_NVIC_DisableIRQ
    stm32f4xx_hal_msp.o(i.HAL_UART_MspInit) refers to stm32f4xx_hal_gpio.o(i.HAL_GPIO_Init) for HAL_GPIO_Init
    stm32f4xx_hal_msp.o(i.HAL_UART_MspInit) refers to stm32f4xx_hal_cortex.o(i.HAL_NVIC_SetPriority) for HAL_NVIC_SetPriority
    stm32f4xx_hal_msp.o(i.HAL_UART_MspInit) refers to stm32f4xx_hal_cortex.o(i.HAL_NVIC_EnableIRQ) for HAL_NVIC_EnableIRQ
    stm32f4xx_it.o(i.DMA2_Stream0_IRQHandler) refers to stm32f4xx_hal_dma.o(i.HAL_DMA_IRQHandler) for HAL_DMA_IRQHandler
    stm32f4xx_it.o(i.DMA2_Stream0_IRQHandler) refers to main.o(.bss) for hdma_adc1
    stm32f4xx_it.o(i.EXTI15_10_IRQHandler) refers to stm32f4xx_hal_gpio.o(i.HAL_GPIO_EXTI_IRQHandler) for HAL_GPIO_EXTI_IRQHandler
    stm32f4xx_it.o(i.EXTI15_10_IRQHandler) refers to main.o(.data) for system
    stm32f4xx_it.o(i.EXTI2_IRQHandler) refers to stm32f4xx_hal_gpio.o(i.HAL_GPIO_EXTI_IRQHandler) for HAL_GPIO_EXTI_IRQHandler
    stm32f4xx_it.o(i.EXTI2_IRQHandler) refers to stm32f4xx_hal_gpio.o(i.HAL_GPIO_ReadPin) for HAL_GPIO_ReadPin
    stm32f4xx_it.o(i.EXTI2_IRQHandler) refers to main.o(.data) for system
    stm32f4xx_it.o(i.EXTI3_IRQHandler) refers to stm32f4xx_hal_gpio.o(i.HAL_GPIO_EXTI_IRQHandler) for HAL_GPIO_EXTI_IRQHandler
    stm32f4xx_it.o(i.EXTI3_IRQHandler) refers to stm32f4xx_hal_gpio.o(i.HAL_GPIO_ReadPin) for HAL_GPIO_ReadPin
    stm32f4xx_it.o(i.EXTI3_IRQHandler) refers to main.o(.data) for system
    stm32f4xx_it.o(i.EXTI9_5_IRQHandler) refers to stm32f4xx_hal_gpio.o(i.HAL_GPIO_EXTI_IRQHandler) for HAL_GPIO_EXTI_IRQHandler
    stm32f4xx_it.o(i.EXTI9_5_IRQHandler) refers to main.o(.data) for system
    stm32f4xx_it.o(i.SysTick_Handler) refers to stm32f4xx_hal.o(i.HAL_IncTick) for HAL_IncTick
    stm32f4xx_it.o(i.SysTick_Handler) refers to stm32f4xx_hal_cortex.o(i.HAL_SYSTICK_IRQHandler) for HAL_SYSTICK_IRQHandler
    stm32f4xx_it.o(i.TIM2_IRQHandler) refers to stm32f4xx_hal_tim.o(i.HAL_TIM_IRQHandler) for HAL_TIM_IRQHandler
    stm32f4xx_it.o(i.TIM2_IRQHandler) refers to main.o(.bss) for htim2
    stm32f4xx_it.o(i.TIM2_IRQHandler) refers to main.o(.data) for cntDate
    stm32f4xx_it.o(i.USART6_IRQHandler) refers to stm32f4xx_hal_uart.o(i.HAL_UART_IRQHandler) for HAL_UART_IRQHandler
    stm32f4xx_it.o(i.USART6_IRQHandler) refers to main.o(.bss) for huart6
    startup_stm32f401xe.o(RESET) refers to startup_stm32f401xe.o(STACK) for __initial_sp
    startup_stm32f401xe.o(RESET) refers to startup_stm32f401xe.o(.text) for Reset_Handler
    startup_stm32f401xe.o(RESET) refers to stm32f4xx_it.o(i.SVC_Handler) for SVC_Handler
    startup_stm32f401xe.o(RESET) refers to stm32f4xx_it.o(i.PendSV_Handler) for PendSV_Handler
    startup_stm32f401xe.o(RESET) refers to stm32f4xx_it.o(i.SysTick_Handler) for SysTick_Handler
    startup_stm32f401xe.o(RESET) refers to stm32f4xx_it.o(i.RCC_IRQHandler) for RCC_IRQHandler
    startup_stm32f401xe.o(RESET) refers to stm32f4xx_it.o(i.EXTI2_IRQHandler) for EXTI2_IRQHandler
    startup_stm32f401xe.o(RESET) refers to stm32f4xx_it.o(i.EXTI3_IRQHandler) for EXTI3_IRQHandler
    startup_stm32f401xe.o(RESET) refers to stm32f4xx_it.o(i.EXTI9_5_IRQHandler) for EXTI9_5_IRQHandler
    startup_stm32f401xe.o(RESET) refers to stm32f4xx_it.o(i.TIM2_IRQHandler) for TIM2_IRQHandler
    startup_stm32f401xe.o(RESET) refers to stm32f4xx_it.o(i.EXTI15_10_IRQHandler) for EXTI15_10_IRQHandler
    startup_stm32f401xe.o(RESET) refers to stm32f4xx_it.o(i.DMA2_Stream0_IRQHandler) for DMA2_Stream0_IRQHandler
    startup_stm32f401xe.o(RESET) refers to stm32f4xx_it.o(i.USART6_IRQHandler) for USART6_IRQHandler
    startup_stm32f401xe.o(.text) refers to system_stm32f4xx.o(i.SystemInit) for SystemInit
    startup_stm32f401xe.o(.text) refers to entry.o(.ARM.Collect$$$$00000000) for __main
    pow.o(i.__hardfp_pow) refers (Special) to iusefp.o(.text) for __I$use$fp
    pow.o(i.__hardfp_pow) refers to dunder.o(i.__mathlib_dbl_infnan2) for __mathlib_dbl_infnan2
    pow.o(i.__hardfp_pow) refers to errno.o(i.__set_errno) for __set_errno
    pow.o(i.__hardfp_pow) refers to dunder.o(i.__mathlib_dbl_divzero) for __mathlib_dbl_divzero
    pow.o(i.__hardfp_pow) refers to dunder.o(i.__mathlib_dbl_overflow) for __mathlib_dbl_overflow
    pow.o(i.__hardfp_pow) refers to ddiv.o(.text) for __aeabi_ddiv
    pow.o(i.__hardfp_pow) refers to sqrt.o(i.sqrt) for sqrt
    pow.o(i.__hardfp_pow) refers to fabs.o(i.fabs) for fabs
    pow.o(i.__hardfp_pow) refers to dflti.o(.text) for __aeabi_i2d
    pow.o(i.__hardfp_pow) refers to dunder.o(i.__mathlib_dbl_invalid) for __mathlib_dbl_invalid
    pow.o(i.__hardfp_pow) refers to dmul.o(.text) for __aeabi_dmul
    pow.o(i.__hardfp_pow) refers to dunder.o(i.__mathlib_dbl_underflow) for __mathlib_dbl_underflow
    pow.o(i.__hardfp_pow) refers to dadd.o(.text) for __aeabi_dsub
    pow.o(i.__hardfp_pow) refers to qnan.o(.constdata) for __mathlib_zero
    pow.o(i.__hardfp_pow) refers to poly.o(i.__kernel_poly) for __kernel_poly
    pow.o(i.__hardfp_pow) refers to pow.o(.constdata) for .constdata
    pow.o(i.__hardfp_pow) refers to cdrcmple.o(.text) for __aeabi_cdrcmple
    pow.o(i.__hardfp_pow) refers to dscalb.o(.text) for __ARM_scalbn
    pow.o(i.__hardfp_pow) refers to fpclassify.o(i.__ARM_fpclassify) for __ARM_fpclassify
    pow.o(i.__softfp_pow) refers (Special) to iusefp.o(.text) for __I$use$fp
    pow.o(i.__softfp_pow) refers to pow.o(i.__hardfp_pow) for __hardfp_pow
    pow.o(i.pow) refers (Special) to iusefp.o(.text) for __I$use$fp
    pow.o(i.pow) refers to pow.o(i.__hardfp_pow) for __hardfp_pow
    pow.o(.constdata) refers (Special) to iusefp.o(.text) for __I$use$fp
    pow_x.o(i.____hardfp_pow$lsc) refers (Special) to iusefp.o(.text) for __I$use$fp
    pow_x.o(i.____hardfp_pow$lsc) refers to dunder.o(i.__mathlib_dbl_infnan2) for __mathlib_dbl_infnan2
    pow_x.o(i.____hardfp_pow$lsc) refers to errno.o(i.__set_errno) for __set_errno
    pow_x.o(i.____hardfp_pow$lsc) refers to ddiv.o(.text) for __aeabi_ddiv
    pow_x.o(i.____hardfp_pow$lsc) refers to sqrt.o(i.sqrt) for sqrt
    pow_x.o(i.____hardfp_pow$lsc) refers to fabs.o(i.fabs) for fabs
    pow_x.o(i.____hardfp_pow$lsc) refers to dflti.o(.text) for __aeabi_i2d
    pow_x.o(i.____hardfp_pow$lsc) refers to dmul.o(.text) for __aeabi_dmul
    pow_x.o(i.____hardfp_pow$lsc) refers to dadd.o(.text) for __aeabi_dsub
    pow_x.o(i.____hardfp_pow$lsc) refers to qnan.o(.constdata) for __mathlib_zero
    pow_x.o(i.____hardfp_pow$lsc) refers to poly.o(i.__kernel_poly) for __kernel_poly
    pow_x.o(i.____hardfp_pow$lsc) refers to pow_x.o(.constdata) for .constdata
    pow_x.o(i.____hardfp_pow$lsc) refers to cdrcmple.o(.text) for __aeabi_cdrcmple
    pow_x.o(i.____hardfp_pow$lsc) refers to dscalb.o(.text) for __ARM_scalbn
    pow_x.o(i.____softfp_pow$lsc) refers (Special) to iusefp.o(.text) for __I$use$fp
    pow_x.o(i.____softfp_pow$lsc) refers to pow_x.o(i.____hardfp_pow$lsc) for ____hardfp_pow$lsc
    pow_x.o(i.__pow$lsc) refers (Special) to iusefp.o(.text) for __I$use$fp
    pow_x.o(i.__pow$lsc) refers to pow_x.o(i.____hardfp_pow$lsc) for ____hardfp_pow$lsc
    pow_x.o(.constdata) refers (Special) to iusefp.o(.text) for __I$use$fp
    entry.o(.ARM.Collect$$$$00000000) refers (Special) to entry10a.o(.ARM.Collect$$$$0000000D) for __rt_final_cpp
    entry.o(.ARM.Collect$$$$00000000) refers (Special) to entry11a.o(.ARM.Collect$$$$0000000F) for __rt_final_exit
    entry.o(.ARM.Collect$$$$00000000) refers (Special) to entry7b.o(.ARM.Collect$$$$00000008) for _main_clock
    entry.o(.ARM.Collect$$$$00000000) refers (Special) to entry8b.o(.ARM.Collect$$$$0000000A) for _main_cpp_init
    entry.o(.ARM.Collect$$$$00000000) refers (Special) to entry9a.o(.ARM.Collect$$$$0000000B) for _main_init
    entry.o(.ARM.Collect$$$$00000000) refers (Special) to entry5.o(.ARM.Collect$$$$00000004) for _main_scatterload
    entry.o(.ARM.Collect$$$$00000000) refers (Special) to entry2.o(.ARM.Collect$$$$00000001) for _main_stk
    strtok.o(.text) refers to strtok.o(.data) for .data
    strtok_r.o(.text) refers to strtok_r.o(.data) for .data
    printfb.o(i.__0fprintf$bare) refers to printfb.o(i._printf_core) for _printf_core
    printfb.o(i.__0fprintf$bare) refers to fputc.o(i.fputc) for fputc
    printfb.o(i.__0printf$bare) refers to printfb.o(i._printf_core) for _printf_core
    printfb.o(i.__0printf$bare) refers to fputc.o(i.fputc) for fputc
    printfb.o(i.__0printf$bare) refers to stdout.o(.data) for __stdout
    printfb.o(i.__0snprintf$bare) refers to printfb.o(i._printf_core) for _printf_core
    printfb.o(i.__0snprintf$bare) refers to printfb.o(i._snputc) for _snputc
    printfb.o(i.__0sprintf$bare) refers to printfb.o(i._printf_core) for _printf_core
    printfb.o(i.__0sprintf$bare) refers to printfb.o(i._sputc) for _sputc
    printfb.o(i.__0vfprintf$bare) refers to printfb.o(i._printf_core) for _printf_core
    printfb.o(i.__0vfprintf$bare) refers to fputc.o(i.fputc) for fputc
    printfb.o(i.__0vprintf$bare) refers to printfb.o(i._printf_core) for _printf_core
    printfb.o(i.__0vprintf$bare) refers to fputc.o(i.fputc) for fputc
    printfb.o(i.__0vprintf$bare) refers to stdout.o(.data) for __stdout
    printfb.o(i.__0vsnprintf$bare) refers to printfb.o(i._printf_core) for _printf_core
    printfb.o(i.__0vsnprintf$bare) refers to printfb.o(i._snputc) for _snputc
    printfb.o(i.__0vsprintf$bare) refers to printfb.o(i._printf_core) for _printf_core
    printfb.o(i.__0vsprintf$bare) refers to printfb.o(i._sputc) for _sputc
    printf0.o(i.__0fprintf$0) refers to printf0.o(i._printf_core) for _printf_core
    printf0.o(i.__0fprintf$0) refers to fputc.o(i.fputc) for fputc
    printf0.o(i.__0printf$0) refers to printf0.o(i._printf_core) for _printf_core
    printf0.o(i.__0printf$0) refers to fputc.o(i.fputc) for fputc
    printf0.o(i.__0printf$0) refers to stdout.o(.data) for __stdout
    printf0.o(i.__0snprintf$0) refers to printf0.o(i._printf_core) for _printf_core
    printf0.o(i.__0snprintf$0) refers to printf0.o(i._snputc) for _snputc
    printf0.o(i.__0sprintf$0) refers to printf0.o(i._printf_core) for _printf_core
    printf0.o(i.__0sprintf$0) refers to printf0.o(i._sputc) for _sputc
    printf0.o(i.__0vfprintf$0) refers to printf0.o(i._printf_core) for _printf_core
    printf0.o(i.__0vfprintf$0) refers to fputc.o(i.fputc) for fputc
    printf0.o(i.__0vprintf$0) refers to printf0.o(i._printf_core) for _printf_core
    printf0.o(i.__0vprintf$0) refers to fputc.o(i.fputc) for fputc
    printf0.o(i.__0vprintf$0) refers to stdout.o(.data) for __stdout
    printf0.o(i.__0vsnprintf$0) refers to printf0.o(i._printf_core) for _printf_core
    printf0.o(i.__0vsnprintf$0) refers to printf0.o(i._snputc) for _snputc
    printf0.o(i.__0vsprintf$0) refers to printf0.o(i._printf_core) for _printf_core
    printf0.o(i.__0vsprintf$0) refers to printf0.o(i._sputc) for _sputc
    printf1.o(i.__0fprintf$1) refers to printf1.o(i._printf_core) for _printf_core
    printf1.o(i.__0fprintf$1) refers to fputc.o(i.fputc) for fputc
    printf1.o(i.__0printf$1) refers to printf1.o(i._printf_core) for _printf_core
    printf1.o(i.__0printf$1) refers to fputc.o(i.fputc) for fputc
    printf1.o(i.__0printf$1) refers to stdout.o(.data) for __stdout
    printf1.o(i.__0snprintf$1) refers to printf1.o(i._printf_core) for _printf_core
    printf1.o(i.__0snprintf$1) refers to printf1.o(i._snputc) for _snputc
    printf1.o(i.__0sprintf$1) refers to printf1.o(i._printf_core) for _printf_core
    printf1.o(i.__0sprintf$1) refers to printf1.o(i._sputc) for _sputc
    printf1.o(i.__0vfprintf$1) refers to printf1.o(i._printf_core) for _printf_core
    printf1.o(i.__0vfprintf$1) refers to fputc.o(i.fputc) for fputc
    printf1.o(i.__0vprintf$1) refers to printf1.o(i._printf_core) for _printf_core
    printf1.o(i.__0vprintf$1) refers to fputc.o(i.fputc) for fputc
    printf1.o(i.__0vprintf$1) refers to stdout.o(.data) for __stdout
    printf1.o(i.__0vsnprintf$1) refers to printf1.o(i._printf_core) for _printf_core
    printf1.o(i.__0vsnprintf$1) refers to printf1.o(i._snputc) for _snputc
    printf1.o(i.__0vsprintf$1) refers to printf1.o(i._printf_core) for _printf_core
    printf1.o(i.__0vsprintf$1) refers to printf1.o(i._sputc) for _sputc
    printf1.o(i._printf_core) refers to uidiv.o(.text) for __aeabi_uidivmod
    printf2.o(i.__0fprintf$2) refers to printf2.o(i._printf_core) for _printf_core
    printf2.o(i.__0fprintf$2) refers to fputc.o(i.fputc) for fputc
    printf2.o(i.__0printf$2) refers to printf2.o(i._printf_core) for _printf_core
    printf2.o(i.__0printf$2) refers to fputc.o(i.fputc) for fputc
    printf2.o(i.__0printf$2) refers to stdout.o(.data) for __stdout
    printf2.o(i.__0snprintf$2) refers to printf2.o(i._printf_core) for _printf_core
    printf2.o(i.__0snprintf$2) refers to printf2.o(i._snputc) for _snputc
    printf2.o(i.__0sprintf$2) refers to printf2.o(i._printf_core) for _printf_core
    printf2.o(i.__0sprintf$2) refers to printf2.o(i._sputc) for _sputc
    printf2.o(i.__0vfprintf$2) refers to printf2.o(i._printf_core) for _printf_core
    printf2.o(i.__0vfprintf$2) refers to fputc.o(i.fputc) for fputc
    printf2.o(i.__0vprintf$2) refers to printf2.o(i._printf_core) for _printf_core
    printf2.o(i.__0vprintf$2) refers to fputc.o(i.fputc) for fputc
    printf2.o(i.__0vprintf$2) refers to stdout.o(.data) for __stdout
    printf2.o(i.__0vsnprintf$2) refers to printf2.o(i._printf_core) for _printf_core
    printf2.o(i.__0vsnprintf$2) refers to printf2.o(i._snputc) for _snputc
    printf2.o(i.__0vsprintf$2) refers to printf2.o(i._printf_core) for _printf_core
    printf2.o(i.__0vsprintf$2) refers to printf2.o(i._sputc) for _sputc
    printf3.o(i.__0fprintf$3) refers to printf3.o(i._printf_core) for _printf_core
    printf3.o(i.__0fprintf$3) refers to fputc.o(i.fputc) for fputc
    printf3.o(i.__0printf$3) refers to printf3.o(i._printf_core) for _printf_core
    printf3.o(i.__0printf$3) refers to fputc.o(i.fputc) for fputc
    printf3.o(i.__0printf$3) refers to stdout.o(.data) for __stdout
    printf3.o(i.__0snprintf$3) refers to printf3.o(i._printf_core) for _printf_core
    printf3.o(i.__0snprintf$3) refers to printf3.o(i._snputc) for _snputc
    printf3.o(i.__0sprintf$3) refers to printf3.o(i._printf_core) for _printf_core
    printf3.o(i.__0sprintf$3) refers to printf3.o(i._sputc) for _sputc
    printf3.o(i.__0vfprintf$3) refers to printf3.o(i._printf_core) for _printf_core
    printf3.o(i.__0vfprintf$3) refers to fputc.o(i.fputc) for fputc
    printf3.o(i.__0vprintf$3) refers to printf3.o(i._printf_core) for _printf_core
    printf3.o(i.__0vprintf$3) refers to fputc.o(i.fputc) for fputc
    printf3.o(i.__0vprintf$3) refers to stdout.o(.data) for __stdout
    printf3.o(i.__0vsnprintf$3) refers to printf3.o(i._printf_core) for _printf_core
    printf3.o(i.__0vsnprintf$3) refers to printf3.o(i._snputc) for _snputc
    printf3.o(i.__0vsprintf$3) refers to printf3.o(i._printf_core) for _printf_core
    printf3.o(i.__0vsprintf$3) refers to printf3.o(i._sputc) for _sputc
    printf3.o(i._printf_core) refers to uidiv.o(.text) for __aeabi_uidivmod
    printf4.o(i.__0fprintf$4) refers to printf4.o(i._printf_core) for _printf_core
    printf4.o(i.__0fprintf$4) refers to fputc.o(i.fputc) for fputc
    printf4.o(i.__0printf$4) refers to printf4.o(i._printf_core) for _printf_core
    printf4.o(i.__0printf$4) refers to fputc.o(i.fputc) for fputc
    printf4.o(i.__0printf$4) refers to stdout.o(.data) for __stdout
    printf4.o(i.__0snprintf$4) refers to printf4.o(i._printf_core) for _printf_core
    printf4.o(i.__0snprintf$4) refers to printf4.o(i._snputc) for _snputc
    printf4.o(i.__0sprintf$4) refers to printf4.o(i._printf_core) for _printf_core
    printf4.o(i.__0sprintf$4) refers to printf4.o(i._sputc) for _sputc
    printf4.o(i.__0vfprintf$4) refers to printf4.o(i._printf_core) for _printf_core
    printf4.o(i.__0vfprintf$4) refers to fputc.o(i.fputc) for fputc
    printf4.o(i.__0vprintf$4) refers to printf4.o(i._printf_core) for _printf_core
    printf4.o(i.__0vprintf$4) refers to fputc.o(i.fputc) for fputc
    printf4.o(i.__0vprintf$4) refers to stdout.o(.data) for __stdout
    printf4.o(i.__0vsnprintf$4) refers to printf4.o(i._printf_core) for _printf_core
    printf4.o(i.__0vsnprintf$4) refers to printf4.o(i._snputc) for _snputc
    printf4.o(i.__0vsprintf$4) refers to printf4.o(i._printf_core) for _printf_core
    printf4.o(i.__0vsprintf$4) refers to printf4.o(i._sputc) for _sputc
    printf4.o(i._printf_core) refers to uldiv.o(.text) for __aeabi_uldivmod
    printf5.o(i.__0fprintf$5) refers to printf5.o(i._printf_core) for _printf_core
    printf5.o(i.__0fprintf$5) refers to fputc.o(i.fputc) for fputc
    printf5.o(i.__0printf$5) refers to printf5.o(i._printf_core) for _printf_core
    printf5.o(i.__0printf$5) refers to fputc.o(i.fputc) for fputc
    printf5.o(i.__0printf$5) refers to stdout.o(.data) for __stdout
    printf5.o(i.__0snprintf$5) refers to printf5.o(i._printf_core) for _printf_core
    printf5.o(i.__0snprintf$5) refers to printf5.o(i._snputc) for _snputc
    printf5.o(i.__0sprintf$5) refers to printf5.o(i._printf_core) for _printf_core
    printf5.o(i.__0sprintf$5) refers to printf5.o(i._sputc) for _sputc
    printf5.o(i.__0vfprintf$5) refers to printf5.o(i._printf_core) for _printf_core
    printf5.o(i.__0vfprintf$5) refers to fputc.o(i.fputc) for fputc
    printf5.o(i.__0vprintf$5) refers to printf5.o(i._printf_core) for _printf_core
    printf5.o(i.__0vprintf$5) refers to fputc.o(i.fputc) for fputc
    printf5.o(i.__0vprintf$5) refers to stdout.o(.data) for __stdout
    printf5.o(i.__0vsnprintf$5) refers to printf5.o(i._printf_core) for _printf_core
    printf5.o(i.__0vsnprintf$5) refers to printf5.o(i._snputc) for _snputc
    printf5.o(i.__0vsprintf$5) refers to printf5.o(i._printf_core) for _printf_core
    printf5.o(i.__0vsprintf$5) refers to printf5.o(i._sputc) for _sputc
    printf5.o(i._printf_core) refers to uldiv.o(.text) for __aeabi_uldivmod
    printf6.o(i.__0fprintf$6) refers to printf6.o(i._printf_core) for _printf_core
    printf6.o(i.__0fprintf$6) refers to fputc.o(i.fputc) for fputc
    printf6.o(i.__0printf$6) refers to printf6.o(i._printf_core) for _printf_core
    printf6.o(i.__0printf$6) refers to fputc.o(i.fputc) for fputc
    printf6.o(i.__0printf$6) refers to stdout.o(.data) for __stdout
    printf6.o(i.__0snprintf$6) refers to printf6.o(i._printf_core) for _printf_core
    printf6.o(i.__0snprintf$6) refers to printf6.o(i._snputc) for _snputc
    printf6.o(i.__0sprintf$6) refers to printf6.o(i._printf_core) for _printf_core
    printf6.o(i.__0sprintf$6) refers to printf6.o(i._sputc) for _sputc
    printf6.o(i.__0vfprintf$6) refers to printf6.o(i._printf_core) for _printf_core
    printf6.o(i.__0vfprintf$6) refers to fputc.o(i.fputc) for fputc
    printf6.o(i.__0vprintf$6) refers to printf6.o(i._printf_core) for _printf_core
    printf6.o(i.__0vprintf$6) refers to fputc.o(i.fputc) for fputc
    printf6.o(i.__0vprintf$6) refers to stdout.o(.data) for __stdout
    printf6.o(i.__0vsnprintf$6) refers to printf6.o(i._printf_core) for _printf_core
    printf6.o(i.__0vsnprintf$6) refers to printf6.o(i._snputc) for _snputc
    printf6.o(i.__0vsprintf$6) refers to printf6.o(i._printf_core) for _printf_core
    printf6.o(i.__0vsprintf$6) refers to printf6.o(i._sputc) for _sputc
    printf6.o(i._printf_core) refers to printf6.o(i._printf_pre_padding) for _printf_pre_padding
    printf6.o(i._printf_core) refers to uidiv.o(.text) for __aeabi_uidivmod
    printf6.o(i._printf_core) refers to printf6.o(i._printf_post_padding) for _printf_post_padding
    printf7.o(i.__0fprintf$7) refers to printf7.o(i._printf_core) for _printf_core
    printf7.o(i.__0fprintf$7) refers to fputc.o(i.fputc) for fputc
    printf7.o(i.__0printf$7) refers to printf7.o(i._printf_core) for _printf_core
    printf7.o(i.__0printf$7) refers to fputc.o(i.fputc) for fputc
    printf7.o(i.__0printf$7) refers to stdout.o(.data) for __stdout
    printf7.o(i.__0snprintf$7) refers to printf7.o(i._printf_core) for _printf_core
    printf7.o(i.__0snprintf$7) refers to printf7.o(i._snputc) for _snputc
    printf7.o(i.__0sprintf$7) refers to printf7.o(i._printf_core) for _printf_core
    printf7.o(i.__0sprintf$7) refers to printf7.o(i._sputc) for _sputc
    printf7.o(i.__0vfprintf$7) refers to printf7.o(i._printf_core) for _printf_core
    printf7.o(i.__0vfprintf$7) refers to fputc.o(i.fputc) for fputc
    printf7.o(i.__0vprintf$7) refers to printf7.o(i._printf_core) for _printf_core
    printf7.o(i.__0vprintf$7) refers to fputc.o(i.fputc) for fputc
    printf7.o(i.__0vprintf$7) refers to stdout.o(.data) for __stdout
    printf7.o(i.__0vsnprintf$7) refers to printf7.o(i._printf_core) for _printf_core
    printf7.o(i.__0vsnprintf$7) refers to printf7.o(i._snputc) for _snputc
    printf7.o(i.__0vsprintf$7) refers to printf7.o(i._printf_core) for _printf_core
    printf7.o(i.__0vsprintf$7) refers to printf7.o(i._sputc) for _sputc
    printf7.o(i._printf_core) refers to printf7.o(i._printf_pre_padding) for _printf_pre_padding
    printf7.o(i._printf_core) refers to uldiv.o(.text) for __aeabi_uldivmod
    printf7.o(i._printf_core) refers to printf7.o(i._printf_post_padding) for _printf_post_padding
    printf8.o(i.__0fprintf$8) refers to printf8.o(i._printf_core) for _printf_core
    printf8.o(i.__0fprintf$8) refers to fputc.o(i.fputc) for fputc
    printf8.o(i.__0printf$8) refers to printf8.o(i._printf_core) for _printf_core
    printf8.o(i.__0printf$8) refers to fputc.o(i.fputc) for fputc
    printf8.o(i.__0printf$8) refers to stdout.o(.data) for __stdout
    printf8.o(i.__0snprintf$8) refers to printf8.o(i._printf_core) for _printf_core
    printf8.o(i.__0snprintf$8) refers to printf8.o(i._snputc) for _snputc
    printf8.o(i.__0sprintf$8) refers to printf8.o(i._printf_core) for _printf_core
    printf8.o(i.__0sprintf$8) refers to printf8.o(i._sputc) for _sputc
    printf8.o(i.__0vfprintf$8) refers to printf8.o(i._printf_core) for _printf_core
    printf8.o(i.__0vfprintf$8) refers to fputc.o(i.fputc) for fputc
    printf8.o(i.__0vprintf$8) refers to printf8.o(i._printf_core) for _printf_core
    printf8.o(i.__0vprintf$8) refers to fputc.o(i.fputc) for fputc
    printf8.o(i.__0vprintf$8) refers to stdout.o(.data) for __stdout
    printf8.o(i.__0vsnprintf$8) refers to printf8.o(i._printf_core) for _printf_core
    printf8.o(i.__0vsnprintf$8) refers to printf8.o(i._snputc) for _snputc
    printf8.o(i.__0vsprintf$8) refers to printf8.o(i._printf_core) for _printf_core
    printf8.o(i.__0vsprintf$8) refers to printf8.o(i._sputc) for _sputc
    printf8.o(i._printf_core) refers to printf8.o(i._printf_pre_padding) for _printf_pre_padding
    printf8.o(i._printf_core) refers to uldiv.o(.text) for __aeabi_uldivmod
    printf8.o(i._printf_core) refers to printf8.o(i._printf_post_padding) for _printf_post_padding
    printfa.o(i.__0fprintf) refers (Special) to iusefp.o(.text) for __I$use$fp
    printfa.o(i.__0fprintf) refers to printfa.o(i._printf_core) for _printf_core
    printfa.o(i.__0fprintf) refers to fputc.o(i.fputc) for fputc
    printfa.o(i.__0printf) refers (Special) to iusefp.o(.text) for __I$use$fp
    printfa.o(i.__0printf) refers to printfa.o(i._printf_core) for _printf_core
    printfa.o(i.__0printf) refers to fputc.o(i.fputc) for fputc
    printfa.o(i.__0printf) refers to stdout.o(.data) for __stdout
    printfa.o(i.__0snprintf) refers (Special) to iusefp.o(.text) for __I$use$fp
    printfa.o(i.__0snprintf) refers to printfa.o(i._printf_core) for _printf_core
    printfa.o(i.__0snprintf) refers to printfa.o(i._snputc) for _snputc
    printfa.o(i.__0sprintf) refers (Special) to iusefp.o(.text) for __I$use$fp
    printfa.o(i.__0sprintf) refers to printfa.o(i._printf_core) for _printf_core
    printfa.o(i.__0sprintf) refers to printfa.o(i._sputc) for _sputc
    printfa.o(i.__0vfprintf) refers (Special) to iusefp.o(.text) for __I$use$fp
    printfa.o(i.__0vfprintf) refers to printfa.o(i._printf_core) for _printf_core
    printfa.o(i.__0vfprintf) refers to fputc.o(i.fputc) for fputc
    printfa.o(i.__0vprintf) refers (Special) to iusefp.o(.text) for __I$use$fp
    printfa.o(i.__0vprintf) refers to printfa.o(i._printf_core) for _printf_core
    printfa.o(i.__0vprintf) refers to fputc.o(i.fputc) for fputc
    printfa.o(i.__0vprintf) refers to stdout.o(.data) for __stdout
    printfa.o(i.__0vsnprintf) refers (Special) to iusefp.o(.text) for __I$use$fp
    printfa.o(i.__0vsnprintf) refers to printfa.o(i._printf_core) for _printf_core
    printfa.o(i.__0vsnprintf) refers to printfa.o(i._snputc) for _snputc
    printfa.o(i.__0vsprintf) refers (Special) to iusefp.o(.text) for __I$use$fp
    printfa.o(i.__0vsprintf) refers to printfa.o(i._printf_core) for _printf_core
    printfa.o(i.__0vsprintf) refers to printfa.o(i._sputc) for _sputc
    printfa.o(i._fp_digits) refers (Special) to iusefp.o(.text) for __I$use$fp
    printfa.o(i._fp_digits) refers to dmul.o(.text) for __aeabi_dmul
    printfa.o(i._fp_digits) refers to ddiv.o(.text) for __aeabi_ddiv
    printfa.o(i._fp_digits) refers to cdrcmple.o(.text) for __aeabi_cdrcmple
    printfa.o(i._fp_digits) refers to dadd.o(.text) for __aeabi_dadd
    printfa.o(i._fp_digits) refers to dfixul.o(.text) for __aeabi_d2ulz
    printfa.o(i._fp_digits) refers to uldiv.o(.text) for __aeabi_uldivmod
    printfa.o(i._printf_core) refers (Special) to iusefp.o(.text) for __I$use$fp
    printfa.o(i._printf_core) refers to printfa.o(i._printf_pre_padding) for _printf_pre_padding
    printfa.o(i._printf_core) refers to uldiv.o(.text) for __aeabi_uldivmod
    printfa.o(i._printf_core) refers to printfa.o(i._printf_post_padding) for _printf_post_padding
    printfa.o(i._printf_core) refers to printfa.o(i._fp_digits) for _fp_digits
    printfa.o(i._printf_core) refers to uidiv.o(.text) for __aeabi_uidivmod
    printfa.o(i._printf_post_padding) refers (Special) to iusefp.o(.text) for __I$use$fp
    printfa.o(i._printf_pre_padding) refers (Special) to iusefp.o(.text) for __I$use$fp
    printfa.o(i._snputc) refers (Special) to iusefp.o(.text) for __I$use$fp
    printfa.o(i._sputc) refers (Special) to iusefp.o(.text) for __I$use$fp
    dadd.o(.text) refers (Special) to iusefp.o(.text) for __I$use$fp
    dadd.o(.text) refers to llshl.o(.text) for __aeabi_llsl
    dadd.o(.text) refers to llsshr.o(.text) for __aeabi_lasr
    dadd.o(.text) refers to depilogue.o(.text) for _double_epilogue
    dmul.o(.text) refers (Special) to iusefp.o(.text) for __I$use$fp
    dmul.o(.text) refers to depilogue.o(.text) for _double_epilogue
    dflti.o(.text) refers (Special) to iusefp.o(.text) for __I$use$fp
    dflti.o(.text) refers to depilogue.o(.text) for _double_epilogue
    dfltui.o(.text) refers (Special) to iusefp.o(.text) for __I$use$fp
    dfltui.o(.text) refers to depilogue.o(.text) for _double_epilogue
    dfixui.o(.text) refers (Special) to iusefp.o(.text) for __I$use$fp
    dfixui.o(.text) refers to llushr.o(.text) for __aeabi_llsr
    f2d.o(.text) refers (Special) to iusefp.o(.text) for __I$use$fp
    d2f.o(.text) refers (Special) to iusefp.o(.text) for __I$use$fp
    d2f.o(.text) refers to fepilogue.o(.text) for _float_round
    dunder.o(i.__mathlib_dbl_divzero) refers to ddiv.o(.text) for __aeabi_ddiv
    dunder.o(i.__mathlib_dbl_infnan) refers to dadd.o(.text) for __aeabi_dadd
    dunder.o(i.__mathlib_dbl_infnan2) refers to dadd.o(.text) for __aeabi_dadd
    dunder.o(i.__mathlib_dbl_invalid) refers to ddiv.o(.text) for __aeabi_ddiv
    dunder.o(i.__mathlib_dbl_overflow) refers to dmul.o(.text) for __aeabi_dmul
    dunder.o(i.__mathlib_dbl_posinfnan) refers to dmul.o(.text) for __aeabi_dmul
    dunder.o(i.__mathlib_dbl_underflow) refers to dmul.o(.text) for __aeabi_dmul
    fabs.o(i.__hardfp_fabs) refers (Special) to iusefp.o(.text) for __I$use$fp
    fabs.o(i.__softfp_fabs) refers (Special) to iusefp.o(.text) for __I$use$fp
    fabs.o(i.fabs) refers (Special) to iusefp.o(.text) for __I$use$fp
    fpclassify.o(i.__ARM_fpclassify) refers (Special) to iusefp.o(.text) for __I$use$fp
    poly.o(i.__kernel_poly) refers (Special) to iusefp.o(.text) for __I$use$fp
    poly.o(i.__kernel_poly) refers to dmul.o(.text) for __aeabi_dmul
    poly.o(i.__kernel_poly) refers to dadd.o(.text) for __aeabi_dadd
    qnan.o(.constdata) refers (Special) to iusefp.o(.text) for __I$use$fp
    sqrt.o(i.__hardfp_sqrt) refers (Special) to iusefp.o(.text) for __I$use$fp
    sqrt.o(i.__hardfp_sqrt) refers to dsqrt.o(.text) for _dsqrt
    sqrt.o(i.__hardfp_sqrt) refers to errno.o(i.__set_errno) for __set_errno
    sqrt.o(i.__softfp_sqrt) refers (Special) to iusefp.o(.text) for __I$use$fp
    sqrt.o(i.__softfp_sqrt) refers to dsqrt.o(.text) for _dsqrt
    sqrt.o(i.__softfp_sqrt) refers to errno.o(i.__set_errno) for __set_errno
    sqrt.o(i.sqrt) refers (Special) to iusefp.o(.text) for __I$use$fp
    sqrt.o(i.sqrt) refers to dsqrt.o(.text) for _dsqrt
    sqrt.o(i.sqrt) refers to errno.o(i.__set_errno) for __set_errno
    sqrt_x.o(i.____hardfp_sqrt$lsc) refers (Special) to iusefp.o(.text) for __I$use$fp
    sqrt_x.o(i.____hardfp_sqrt$lsc) refers to cdcmple.o(.text) for __aeabi_cdcmple
    sqrt_x.o(i.____hardfp_sqrt$lsc) refers to errno.o(i.__set_errno) for __set_errno
    sqrt_x.o(i.____hardfp_sqrt$lsc) refers to dsqrt.o(.text) for _dsqrt
    sqrt_x.o(i.____softfp_sqrt$lsc) refers (Special) to iusefp.o(.text) for __I$use$fp
    sqrt_x.o(i.____softfp_sqrt$lsc) refers to cdcmple.o(.text) for __aeabi_cdcmple
    sqrt_x.o(i.____softfp_sqrt$lsc) refers to errno.o(i.__set_errno) for __set_errno
    sqrt_x.o(i.____softfp_sqrt$lsc) refers to dsqrt.o(.text) for _dsqrt
    sqrt_x.o(i.__sqrt$lsc) refers (Special) to iusefp.o(.text) for __I$use$fp
    sqrt_x.o(i.__sqrt$lsc) refers to cdcmple.o(.text) for __aeabi_cdcmple
    sqrt_x.o(i.__sqrt$lsc) refers to errno.o(i.__set_errno) for __set_errno
    sqrt_x.o(i.__sqrt$lsc) refers to dsqrt.o(.text) for _dsqrt
    entry2.o(.ARM.Collect$$$$00000001) refers to entry2.o(.ARM.Collect$$$$00002712) for __lit__00000000
    entry2.o(.ARM.Collect$$$$00002712) refers to startup_stm32f401xe.o(STACK) for __initial_sp
    entry2.o(__vectab_stack_and_reset_area) refers to startup_stm32f401xe.o(STACK) for __initial_sp
    entry2.o(__vectab_stack_and_reset_area) refers to entry.o(.ARM.Collect$$$$00000000) for __main
    entry5.o(.ARM.Collect$$$$00000004) refers to init.o(.text) for __scatterload
    entry9a.o(.ARM.Collect$$$$0000000B) refers to main.o(i.main) for main
    entry9b.o(.ARM.Collect$$$$0000000C) refers to main.o(i.main) for main
    fputc.o(i.fputc) refers (Special) to iusesemip.o(.text) for __I$use$semihosting$fputc
    fputc.o(i.fputc) refers (Special) to semi.o(.text) for __semihosting_library_function
    uldiv.o(.text) refers to llushr.o(.text) for __aeabi_llsr
    uldiv.o(.text) refers to llshl.o(.text) for __aeabi_llsl
    errno.o(i.__aeabi_errno_addr) refers to errno.o(.data) for .data
    errno.o(i.__read_errno) refers to errno.o(.data) for .data
    errno.o(i.__set_errno) refers to errno.o(.data) for .data
    depilogue.o(.text) refers to llshl.o(.text) for __aeabi_llsl
    depilogue.o(.text) refers to llushr.o(.text) for __aeabi_llsr
    ddiv.o(.text) refers to depilogue.o(.text) for _double_round
    dfixul.o(.text) refers to llushr.o(.text) for __aeabi_llsr
    dfixul.o(.text) refers to llshl.o(.text) for __aeabi_llsl
    init.o(.text) refers to entry5.o(.ARM.Collect$$$$00000004) for __main_after_scatterload
    dsqrt.o(.text) refers to llushr.o(.text) for __aeabi_llsr
    dsqrt.o(.text) refers to depilogue.o(.text) for _double_round


==============================================================================

Removing Unused input sections from the image.

    Removing stm32f4xx_hal_rcc_ex.o(.rev16_text), (4 bytes).
    Removing stm32f4xx_hal_rcc_ex.o(.revsh_text), (4 bytes).
    Removing stm32f4xx_hal_rcc_ex.o(.rrx_text), (6 bytes).
    Removing stm32f4xx_hal_rcc_ex.o(i.HAL_RCCEx_GetPeriphCLKConfig), (96 bytes).
    Removing stm32f4xx_hal_rcc_ex.o(i.HAL_RCCEx_GetPeriphCLKFreq), (92 bytes).
    Removing stm32f4xx_hal_rcc_ex.o(i.HAL_RCC_DeInit), (92 bytes).
    Removing stm32f4xx_hal_flash.o(.rev16_text), (4 bytes).
    Removing stm32f4xx_hal_flash.o(.revsh_text), (4 bytes).
    Removing stm32f4xx_hal_flash.o(.rrx_text), (6 bytes).
    Removing stm32f4xx_hal_flash.o(i.FLASH_Program_Byte), (32 bytes).
    Removing stm32f4xx_hal_flash.o(i.FLASH_Program_DoubleWord), (40 bytes).
    Removing stm32f4xx_hal_flash.o(i.FLASH_Program_HalfWord), (36 bytes).
    Removing stm32f4xx_hal_flash.o(i.FLASH_Program_Word), (36 bytes).
    Removing stm32f4xx_hal_flash.o(i.FLASH_SetErrorCode), (124 bytes).
    Removing stm32f4xx_hal_flash.o(i.FLASH_WaitForLastOperation), (80 bytes).
    Removing stm32f4xx_hal_flash.o(i.HAL_FLASH_EndOfOperationCallback), (2 bytes).
    Removing stm32f4xx_hal_flash.o(i.HAL_FLASH_GetError), (12 bytes).
    Removing stm32f4xx_hal_flash.o(i.HAL_FLASH_IRQHandler), (204 bytes).
    Removing stm32f4xx_hal_flash.o(i.HAL_FLASH_Lock), (20 bytes).
    Removing stm32f4xx_hal_flash.o(i.HAL_FLASH_OB_Launch), (24 bytes).
    Removing stm32f4xx_hal_flash.o(i.HAL_FLASH_OB_Lock), (20 bytes).
    Removing stm32f4xx_hal_flash.o(i.HAL_FLASH_OB_Unlock), (40 bytes).
    Removing stm32f4xx_hal_flash.o(i.HAL_FLASH_OperationErrorCallback), (2 bytes).
    Removing stm32f4xx_hal_flash.o(i.HAL_FLASH_Program), (124 bytes).
    Removing stm32f4xx_hal_flash.o(i.HAL_FLASH_Program_IT), (108 bytes).
    Removing stm32f4xx_hal_flash.o(i.HAL_FLASH_Unlock), (40 bytes).
    Removing stm32f4xx_hal_flash.o(.bss), (32 bytes).
    Removing stm32f4xx_hal.o(.rev16_text), (4 bytes).
    Removing stm32f4xx_hal.o(.revsh_text), (4 bytes).
    Removing stm32f4xx_hal.o(.rrx_text), (6 bytes).
    Removing stm32f4xx_hal.o(i.HAL_DBGMCU_DisableDBGSleepMode), (16 bytes).
    Removing stm32f4xx_hal.o(i.HAL_DBGMCU_DisableDBGStandbyMode), (16 bytes).
    Removing stm32f4xx_hal.o(i.HAL_DBGMCU_DisableDBGStopMode), (16 bytes).
    Removing stm32f4xx_hal.o(i.HAL_DBGMCU_EnableDBGSleepMode), (16 bytes).
    Removing stm32f4xx_hal.o(i.HAL_DBGMCU_EnableDBGStandbyMode), (16 bytes).
    Removing stm32f4xx_hal.o(i.HAL_DBGMCU_EnableDBGStopMode), (16 bytes).
    Removing stm32f4xx_hal.o(i.HAL_DeInit), (52 bytes).
    Removing stm32f4xx_hal.o(i.HAL_DisableCompensationCell), (28 bytes).
    Removing stm32f4xx_hal.o(i.HAL_EnableCompensationCell), (28 bytes).
    Removing stm32f4xx_hal.o(i.HAL_GetDEVID), (16 bytes).
    Removing stm32f4xx_hal.o(i.HAL_GetHalVersion), (8 bytes).
    Removing stm32f4xx_hal.o(i.HAL_GetREVID), (12 bytes).
    Removing stm32f4xx_hal.o(i.HAL_GetUID), (28 bytes).
    Removing stm32f4xx_hal.o(i.HAL_MspDeInit), (2 bytes).
    Removing stm32f4xx_hal.o(i.HAL_MspInit), (2 bytes).
    Removing stm32f4xx_hal.o(i.HAL_ResumeTick), (14 bytes).
    Removing stm32f4xx_hal.o(i.HAL_SuspendTick), (14 bytes).
    Removing stm32f4xx_hal_tim.o(.rev16_text), (4 bytes).
    Removing stm32f4xx_hal_tim.o(.revsh_text), (4 bytes).
    Removing stm32f4xx_hal_tim.o(.rrx_text), (6 bytes).
    Removing stm32f4xx_hal_tim.o(i.HAL_TIM_Base_DeInit), (56 bytes).
    Removing stm32f4xx_hal_tim.o(i.HAL_TIM_Base_GetState), (6 bytes).
    Removing stm32f4xx_hal_tim.o(i.HAL_TIM_Base_MspDeInit), (2 bytes).
    Removing stm32f4xx_hal_tim.o(i.HAL_TIM_Base_MspInit), (2 bytes).
    Removing stm32f4xx_hal_tim.o(i.HAL_TIM_Base_Start_DMA), (92 bytes).
    Removing stm32f4xx_hal_tim.o(i.HAL_TIM_Base_Stop), (44 bytes).
    Removing stm32f4xx_hal_tim.o(i.HAL_TIM_Base_Stop_DMA), (48 bytes).
    Removing stm32f4xx_hal_tim.o(i.HAL_TIM_ConfigOCrefClear), (174 bytes).
    Removing stm32f4xx_hal_tim.o(i.HAL_TIM_ConfigTI1Input), (16 bytes).
    Removing stm32f4xx_hal_tim.o(i.HAL_TIM_DMABurst_ReadStart), (260 bytes).
    Removing stm32f4xx_hal_tim.o(i.HAL_TIM_DMABurst_ReadStop), (96 bytes).
    Removing stm32f4xx_hal_tim.o(i.HAL_TIM_DMABurst_WriteStart), (260 bytes).
    Removing stm32f4xx_hal_tim.o(i.HAL_TIM_DMABurst_WriteStop), (96 bytes).
    Removing stm32f4xx_hal_tim.o(i.HAL_TIM_Encoder_DeInit), (56 bytes).
    Removing stm32f4xx_hal_tim.o(i.HAL_TIM_Encoder_GetState), (6 bytes).
    Removing stm32f4xx_hal_tim.o(i.HAL_TIM_Encoder_Init), (150 bytes).
    Removing stm32f4xx_hal_tim.o(i.HAL_TIM_Encoder_MspDeInit), (2 bytes).
    Removing stm32f4xx_hal_tim.o(i.HAL_TIM_Encoder_MspInit), (2 bytes).
    Removing stm32f4xx_hal_tim.o(i.HAL_TIM_Encoder_Start), (52 bytes).
    Removing stm32f4xx_hal_tim.o(i.HAL_TIM_Encoder_Start_DMA), (272 bytes).
    Removing stm32f4xx_hal_tim.o(i.HAL_TIM_Encoder_Start_IT), (92 bytes).
    Removing stm32f4xx_hal_tim.o(i.HAL_TIM_Encoder_Stop), (70 bytes).
    Removing stm32f4xx_hal_tim.o(i.HAL_TIM_Encoder_Stop_DMA), (116 bytes).
    Removing stm32f4xx_hal_tim.o(i.HAL_TIM_Encoder_Stop_IT), (116 bytes).
    Removing stm32f4xx_hal_tim.o(i.HAL_TIM_ErrorCallback), (2 bytes).
    Removing stm32f4xx_hal_tim.o(i.HAL_TIM_GenerateEvent), (38 bytes).
    Removing stm32f4xx_hal_tim.o(i.HAL_TIM_IC_ConfigChannel), (286 bytes).
    Removing stm32f4xx_hal_tim.o(i.HAL_TIM_IC_DeInit), (56 bytes).
    Removing stm32f4xx_hal_tim.o(i.HAL_TIM_IC_GetState), (6 bytes).
    Removing stm32f4xx_hal_tim.o(i.HAL_TIM_IC_Init), (54 bytes).
    Removing stm32f4xx_hal_tim.o(i.HAL_TIM_IC_MspDeInit), (2 bytes).
    Removing stm32f4xx_hal_tim.o(i.HAL_TIM_IC_MspInit), (2 bytes).
    Removing stm32f4xx_hal_tim.o(i.HAL_TIM_IC_Start), (26 bytes).
    Removing stm32f4xx_hal_tim.o(i.HAL_TIM_IC_Start_DMA), (200 bytes).
    Removing stm32f4xx_hal_tim.o(i.HAL_TIM_IC_Start_IT), (76 bytes).
    Removing stm32f4xx_hal_tim.o(i.HAL_TIM_IC_Stop), (44 bytes).
    Removing stm32f4xx_hal_tim.o(i.HAL_TIM_IC_Stop_DMA), (100 bytes).
    Removing stm32f4xx_hal_tim.o(i.HAL_TIM_IC_Stop_IT), (94 bytes).
    Removing stm32f4xx_hal_tim.o(i.HAL_TIM_OC_ConfigChannel), (86 bytes).
    Removing stm32f4xx_hal_tim.o(i.HAL_TIM_OC_DeInit), (56 bytes).
    Removing stm32f4xx_hal_tim.o(i.HAL_TIM_OC_GetState), (6 bytes).
    Removing stm32f4xx_hal_tim.o(i.HAL_TIM_OC_Init), (54 bytes).
    Removing stm32f4xx_hal_tim.o(i.HAL_TIM_OC_MspDeInit), (2 bytes).
    Removing stm32f4xx_hal_tim.o(i.HAL_TIM_OC_MspInit), (2 bytes).
    Removing stm32f4xx_hal_tim.o(i.HAL_TIM_OC_Start), (48 bytes).
    Removing stm32f4xx_hal_tim.o(i.HAL_TIM_OC_Start_DMA), (228 bytes).
    Removing stm32f4xx_hal_tim.o(i.HAL_TIM_OC_Start_IT), (96 bytes).
    Removing stm32f4xx_hal_tim.o(i.HAL_TIM_OC_Stop), (76 bytes).
    Removing stm32f4xx_hal_tim.o(i.HAL_TIM_OC_Stop_DMA), (132 bytes).
    Removing stm32f4xx_hal_tim.o(i.HAL_TIM_OC_Stop_IT), (128 bytes).
    Removing stm32f4xx_hal_tim.o(i.HAL_TIM_OnePulse_ConfigChannel), (218 bytes).
    Removing stm32f4xx_hal_tim.o(i.HAL_TIM_OnePulse_DeInit), (56 bytes).
    Removing stm32f4xx_hal_tim.o(i.HAL_TIM_OnePulse_GetState), (6 bytes).
    Removing stm32f4xx_hal_tim.o(i.HAL_TIM_OnePulse_Init), (74 bytes).
    Removing stm32f4xx_hal_tim.o(i.HAL_TIM_OnePulse_MspDeInit), (2 bytes).
    Removing stm32f4xx_hal_tim.o(i.HAL_TIM_OnePulse_MspInit), (2 bytes).
    Removing stm32f4xx_hal_tim.o(i.HAL_TIM_OnePulse_Start), (48 bytes).
    Removing stm32f4xx_hal_tim.o(i.HAL_TIM_OnePulse_Start_IT), (68 bytes).
    Removing stm32f4xx_hal_tim.o(i.HAL_TIM_OnePulse_Stop), (88 bytes).
    Removing stm32f4xx_hal_tim.o(i.HAL_TIM_OnePulse_Stop_IT), (108 bytes).
    Removing stm32f4xx_hal_tim.o(i.HAL_TIM_PWM_ConfigChannel), (208 bytes).
    Removing stm32f4xx_hal_tim.o(i.HAL_TIM_PWM_DeInit), (56 bytes).
    Removing stm32f4xx_hal_tim.o(i.HAL_TIM_PWM_GetState), (6 bytes).
    Removing stm32f4xx_hal_tim.o(i.HAL_TIM_PWM_Init), (54 bytes).
    Removing stm32f4xx_hal_tim.o(i.HAL_TIM_PWM_MspDeInit), (2 bytes).
    Removing stm32f4xx_hal_tim.o(i.HAL_TIM_PWM_MspInit), (2 bytes).
    Removing stm32f4xx_hal_tim.o(i.HAL_TIM_PWM_Start), (48 bytes).
    Removing stm32f4xx_hal_tim.o(i.HAL_TIM_PWM_Start_DMA), (228 bytes).
    Removing stm32f4xx_hal_tim.o(i.HAL_TIM_PWM_Start_IT), (96 bytes).
    Removing stm32f4xx_hal_tim.o(i.HAL_TIM_PWM_Stop), (84 bytes).
    Removing stm32f4xx_hal_tim.o(i.HAL_TIM_PWM_Stop_DMA), (132 bytes).
    Removing stm32f4xx_hal_tim.o(i.HAL_TIM_PWM_Stop_IT), (128 bytes).
    Removing stm32f4xx_hal_tim.o(i.HAL_TIM_ReadCapturedValue), (68 bytes).
    Removing stm32f4xx_hal_tim.o(i.HAL_TIM_SlaveConfigSynchronization), (66 bytes).
    Removing stm32f4xx_hal_tim.o(i.HAL_TIM_SlaveConfigSynchronization_IT), (66 bytes).
    Removing stm32f4xx_hal_tim.o(i.TIM_CCxChannelCmd), (22 bytes).
    Removing stm32f4xx_hal_tim.o(i.TIM_DMACaptureCplt), (62 bytes).
    Removing stm32f4xx_hal_tim.o(i.TIM_DMADelayPulseCplt), (62 bytes).
    Removing stm32f4xx_hal_tim.o(i.TIM_DMAError), (16 bytes).
    Removing stm32f4xx_hal_tim.o(i.TIM_DMAPeriodElapsedCplt), (16 bytes).
    Removing stm32f4xx_hal_tim.o(i.TIM_DMATriggerCplt), (16 bytes).
    Removing stm32f4xx_hal_tim.o(i.TIM_OC1_SetConfig), (80 bytes).
    Removing stm32f4xx_hal_tim.o(i.TIM_OC2_SetConfig), (88 bytes).
    Removing stm32f4xx_hal_tim.o(i.TIM_OC3_SetConfig), (88 bytes).
    Removing stm32f4xx_hal_tim.o(i.TIM_OC4_SetConfig), (68 bytes).
    Removing stm32f4xx_hal_tim.o(i.TIM_SlaveTimer_SetConfig), (124 bytes).
    Removing stm32f4xx_hal_tim.o(i.TIM_TI1_SetConfig), (112 bytes).
    Removing stm32f4xx_hal_tim.o(i.TIM_TI2_SetConfig), (54 bytes).
    Removing stm32f4xx_hal_rcc.o(.rev16_text), (4 bytes).
    Removing stm32f4xx_hal_rcc.o(.revsh_text), (4 bytes).
    Removing stm32f4xx_hal_rcc.o(.rrx_text), (6 bytes).
    Removing stm32f4xx_hal_rcc.o(i.HAL_RCC_CSSCallback), (2 bytes).
    Removing stm32f4xx_hal_rcc.o(i.HAL_RCC_DeInit), (2 bytes).
    Removing stm32f4xx_hal_rcc.o(i.HAL_RCC_DisableCSS), (12 bytes).
    Removing stm32f4xx_hal_rcc.o(i.HAL_RCC_EnableCSS), (12 bytes).
    Removing stm32f4xx_hal_rcc.o(i.HAL_RCC_GetClockConfig), (64 bytes).
    Removing stm32f4xx_hal_rcc.o(i.HAL_RCC_GetOscConfig), (232 bytes).
    Removing stm32f4xx_hal_rcc.o(i.HAL_RCC_MCOConfig), (140 bytes).
    Removing stm32f4xx_hal_rcc.o(i.HAL_RCC_NMI_IRQHandler), (28 bytes).
    Removing stm32f4xx_hal_adc.o(.rev16_text), (4 bytes).
    Removing stm32f4xx_hal_adc.o(.revsh_text), (4 bytes).
    Removing stm32f4xx_hal_adc.o(.rrx_text), (6 bytes).
    Removing stm32f4xx_hal_adc.o(i.HAL_ADC_AnalogWDGConfig), (112 bytes).
    Removing stm32f4xx_hal_adc.o(i.HAL_ADC_DeInit), (60 bytes).
    Removing stm32f4xx_hal_adc.o(i.HAL_ADC_GetError), (4 bytes).
    Removing stm32f4xx_hal_adc.o(i.HAL_ADC_GetState), (4 bytes).
    Removing stm32f4xx_hal_adc.o(i.HAL_ADC_GetValue), (6 bytes).
    Removing stm32f4xx_hal_adc.o(i.HAL_ADC_IRQHandler), (316 bytes).
    Removing stm32f4xx_hal_adc.o(i.HAL_ADC_LevelOutOfWindowCallback), (2 bytes).
    Removing stm32f4xx_hal_adc.o(i.HAL_ADC_MspDeInit), (2 bytes).
    Removing stm32f4xx_hal_adc.o(i.HAL_ADC_MspInit), (2 bytes).
    Removing stm32f4xx_hal_adc.o(i.HAL_ADC_PollForConversion), (162 bytes).
    Removing stm32f4xx_hal_adc.o(i.HAL_ADC_PollForEvent), (108 bytes).
    Removing stm32f4xx_hal_adc.o(i.HAL_ADC_Start), (188 bytes).
    Removing stm32f4xx_hal_adc.o(i.HAL_ADC_Start_IT), (200 bytes).
    Removing stm32f4xx_hal_adc.o(i.HAL_ADC_Stop), (60 bytes).
    Removing stm32f4xx_hal_adc.o(i.HAL_ADC_Stop_DMA), (88 bytes).
    Removing stm32f4xx_hal_adc.o(i.HAL_ADC_Stop_IT), (72 bytes).
    Removing stm32f4xx_hal_adc_ex.o(.rev16_text), (4 bytes).
    Removing stm32f4xx_hal_adc_ex.o(.revsh_text), (4 bytes).
    Removing stm32f4xx_hal_adc_ex.o(.rrx_text), (6 bytes).
    Removing stm32f4xx_hal_adc_ex.o(i.ADC_MultiModeDMAConvCplt), (90 bytes).
    Removing stm32f4xx_hal_adc_ex.o(i.ADC_MultiModeDMAError), (18 bytes).
    Removing stm32f4xx_hal_adc_ex.o(i.ADC_MultiModeDMAHalfConvCplt), (6 bytes).
    Removing stm32f4xx_hal_adc_ex.o(i.HAL_ADCEx_InjectedConfigChannel), (444 bytes).
    Removing stm32f4xx_hal_adc_ex.o(i.HAL_ADCEx_InjectedConvCpltCallback), (2 bytes).
    Removing stm32f4xx_hal_adc_ex.o(i.HAL_ADCEx_InjectedGetValue), (58 bytes).
    Removing stm32f4xx_hal_adc_ex.o(i.HAL_ADCEx_InjectedPollForConversion), (136 bytes).
    Removing stm32f4xx_hal_adc_ex.o(i.HAL_ADCEx_InjectedStart), (196 bytes).
    Removing stm32f4xx_hal_adc_ex.o(i.HAL_ADCEx_InjectedStart_IT), (204 bytes).
    Removing stm32f4xx_hal_adc_ex.o(i.HAL_ADCEx_InjectedStop), (86 bytes).
    Removing stm32f4xx_hal_adc_ex.o(i.HAL_ADCEx_InjectedStop_IT), (94 bytes).
    Removing stm32f4xx_hal_adc_ex.o(i.HAL_ADCEx_MultiModeConfigChannel), (84 bytes).
    Removing stm32f4xx_hal_adc_ex.o(i.HAL_ADCEx_MultiModeGetValue), (12 bytes).
    Removing stm32f4xx_hal_adc_ex.o(i.HAL_ADCEx_MultiModeStart_DMA), (248 bytes).
    Removing stm32f4xx_hal_adc_ex.o(i.HAL_ADCEx_MultiModeStop_DMA), (96 bytes).
    Removing stm32f4xx_hal_tim_ex.o(.rev16_text), (4 bytes).
    Removing stm32f4xx_hal_tim_ex.o(.revsh_text), (4 bytes).
    Removing stm32f4xx_hal_tim_ex.o(.rrx_text), (6 bytes).
    Removing stm32f4xx_hal_tim_ex.o(i.HAL_TIMEx_ConfigBreakDeadTime), (90 bytes).
    Removing stm32f4xx_hal_tim_ex.o(i.HAL_TIMEx_ConfigCommutationEvent), (92 bytes).
    Removing stm32f4xx_hal_tim_ex.o(i.HAL_TIMEx_ConfigCommutationEvent_DMA), (124 bytes).
    Removing stm32f4xx_hal_tim_ex.o(i.HAL_TIMEx_ConfigCommutationEvent_IT), (102 bytes).
    Removing stm32f4xx_hal_tim_ex.o(i.HAL_TIMEx_HallSensor_DeInit), (56 bytes).
    Removing stm32f4xx_hal_tim_ex.o(i.HAL_TIMEx_HallSensor_GetState), (6 bytes).
    Removing stm32f4xx_hal_tim_ex.o(i.HAL_TIMEx_HallSensor_Init), (176 bytes).
    Removing stm32f4xx_hal_tim_ex.o(i.HAL_TIMEx_HallSensor_MspDeInit), (2 bytes).
    Removing stm32f4xx_hal_tim_ex.o(i.HAL_TIMEx_HallSensor_MspInit), (2 bytes).
    Removing stm32f4xx_hal_tim_ex.o(i.HAL_TIMEx_HallSensor_Start), (28 bytes).
    Removing stm32f4xx_hal_tim_ex.o(i.HAL_TIMEx_HallSensor_Start_DMA), (104 bytes).
    Removing stm32f4xx_hal_tim_ex.o(i.HAL_TIMEx_HallSensor_Start_IT), (38 bytes).
    Removing stm32f4xx_hal_tim_ex.o(i.HAL_TIMEx_HallSensor_Stop), (46 bytes).
    Removing stm32f4xx_hal_tim_ex.o(i.HAL_TIMEx_HallSensor_Stop_DMA), (56 bytes).
    Removing stm32f4xx_hal_tim_ex.o(i.HAL_TIMEx_HallSensor_Stop_IT), (56 bytes).
    Removing stm32f4xx_hal_tim_ex.o(i.HAL_TIMEx_OCN_Start), (36 bytes).
    Removing stm32f4xx_hal_tim_ex.o(i.HAL_TIMEx_OCN_Start_DMA), (220 bytes).
    Removing stm32f4xx_hal_tim_ex.o(i.HAL_TIMEx_OCN_Start_IT), (96 bytes).
    Removing stm32f4xx_hal_tim_ex.o(i.HAL_TIMEx_OCN_Stop), (68 bytes).
    Removing stm32f4xx_hal_tim_ex.o(i.HAL_TIMEx_OCN_Stop_DMA), (124 bytes).
    Removing stm32f4xx_hal_tim_ex.o(i.HAL_TIMEx_OCN_Stop_IT), (134 bytes).
    Removing stm32f4xx_hal_tim_ex.o(i.HAL_TIMEx_OnePulseN_Start), (26 bytes).
    Removing stm32f4xx_hal_tim_ex.o(i.HAL_TIMEx_OnePulseN_Start_IT), (46 bytes).
    Removing stm32f4xx_hal_tim_ex.o(i.HAL_TIMEx_OnePulseN_Stop), (68 bytes).
    Removing stm32f4xx_hal_tim_ex.o(i.HAL_TIMEx_OnePulseN_Stop_IT), (88 bytes).
    Removing stm32f4xx_hal_tim_ex.o(i.HAL_TIMEx_PWMN_Start), (36 bytes).
    Removing stm32f4xx_hal_tim_ex.o(i.HAL_TIMEx_PWMN_Start_DMA), (220 bytes).
    Removing stm32f4xx_hal_tim_ex.o(i.HAL_TIMEx_PWMN_Start_IT), (96 bytes).
    Removing stm32f4xx_hal_tim_ex.o(i.HAL_TIMEx_PWMN_Stop), (68 bytes).
    Removing stm32f4xx_hal_tim_ex.o(i.HAL_TIMEx_PWMN_Stop_DMA), (124 bytes).
    Removing stm32f4xx_hal_tim_ex.o(i.HAL_TIMEx_PWMN_Stop_IT), (134 bytes).
    Removing stm32f4xx_hal_tim_ex.o(i.HAL_TIMEx_RemapConfig), (34 bytes).
    Removing stm32f4xx_hal_tim_ex.o(i.TIMEx_DMACommutationCplt), (16 bytes).
    Removing stm32f4xx_hal_tim_ex.o(i.TIM_CCxNChannelCmd), (22 bytes).
    Removing stm32f4xx_hal_uart.o(.rev16_text), (4 bytes).
    Removing stm32f4xx_hal_uart.o(.revsh_text), (4 bytes).
    Removing stm32f4xx_hal_uart.o(.rrx_text), (6 bytes).
    Removing stm32f4xx_hal_uart.o(i.HAL_HalfDuplex_EnableReceiver), (50 bytes).
    Removing stm32f4xx_hal_uart.o(i.HAL_HalfDuplex_EnableTransmitter), (50 bytes).
    Removing stm32f4xx_hal_uart.o(i.HAL_HalfDuplex_Init), (108 bytes).
    Removing stm32f4xx_hal_uart.o(i.HAL_LIN_Init), (128 bytes).
    Removing stm32f4xx_hal_uart.o(i.HAL_LIN_SendBreak), (46 bytes).
    Removing stm32f4xx_hal_uart.o(i.HAL_MultiProcessor_EnterMuteMode), (46 bytes).
    Removing stm32f4xx_hal_uart.o(i.HAL_MultiProcessor_ExitMuteMode), (46 bytes).
    Removing stm32f4xx_hal_uart.o(i.HAL_MultiProcessor_Init), (142 bytes).
    Removing stm32f4xx_hal_uart.o(i.HAL_UART_Abort), (104 bytes).
    Removing stm32f4xx_hal_uart.o(i.HAL_UART_AbortCpltCallback), (2 bytes).
    Removing stm32f4xx_hal_uart.o(i.HAL_UART_AbortReceive), (68 bytes).
    Removing stm32f4xx_hal_uart.o(i.HAL_UART_AbortReceiveCpltCallback), (2 bytes).
    Removing stm32f4xx_hal_uart.o(i.HAL_UART_AbortReceive_IT), (92 bytes).
    Removing stm32f4xx_hal_uart.o(i.HAL_UART_AbortTransmit), (58 bytes).
    Removing stm32f4xx_hal_uart.o(i.HAL_UART_AbortTransmitCpltCallback), (2 bytes).
    Removing stm32f4xx_hal_uart.o(i.HAL_UART_AbortTransmit_IT), (84 bytes).
    Removing stm32f4xx_hal_uart.o(i.HAL_UART_Abort_IT), (172 bytes).
    Removing stm32f4xx_hal_uart.o(i.HAL_UART_DMAPause), (102 bytes).
    Removing stm32f4xx_hal_uart.o(i.HAL_UART_DMAResume), (94 bytes).
    Removing stm32f4xx_hal_uart.o(i.HAL_UART_DMAStop), (88 bytes).
    Removing stm32f4xx_hal_uart.o(i.HAL_UART_DeInit), (40 bytes).
    Removing stm32f4xx_hal_uart.o(i.HAL_UART_GetError), (4 bytes).
    Removing stm32f4xx_hal_uart.o(i.HAL_UART_GetState), (10 bytes).
    Removing stm32f4xx_hal_uart.o(i.HAL_UART_MspDeInit), (2 bytes).
    Removing stm32f4xx_hal_uart.o(i.HAL_UART_MspInit), (2 bytes).
    Removing stm32f4xx_hal_uart.o(i.HAL_UART_Receive), (184 bytes).
    Removing stm32f4xx_hal_uart.o(i.HAL_UART_Receive_DMA), (152 bytes).
    Removing stm32f4xx_hal_uart.o(i.HAL_UART_RxCpltCallback), (2 bytes).
    Removing stm32f4xx_hal_uart.o(i.HAL_UART_RxHalfCpltCallback), (2 bytes).
    Removing stm32f4xx_hal_uart.o(i.HAL_UART_Transmit), (186 bytes).
    Removing stm32f4xx_hal_uart.o(i.HAL_UART_Transmit_DMA), (128 bytes).
    Removing stm32f4xx_hal_uart.o(i.HAL_UART_TxHalfCpltCallback), (2 bytes).
    Removing stm32f4xx_hal_uart.o(i.UART_DMAError), (74 bytes).
    Removing stm32f4xx_hal_uart.o(i.UART_DMAReceiveCplt), (60 bytes).
    Removing stm32f4xx_hal_uart.o(i.UART_DMARxAbortCallback), (42 bytes).
    Removing stm32f4xx_hal_uart.o(i.UART_DMARxHalfCplt), (10 bytes).
    Removing stm32f4xx_hal_uart.o(i.UART_DMARxOnlyAbortCallback), (20 bytes).
    Removing stm32f4xx_hal_uart.o(i.UART_DMATransmitCplt), (46 bytes).
    Removing stm32f4xx_hal_uart.o(i.UART_DMATxAbortCallback), (42 bytes).
    Removing stm32f4xx_hal_uart.o(i.UART_DMATxHalfCplt), (10 bytes).
    Removing stm32f4xx_hal_uart.o(i.UART_DMATxOnlyAbortCallback), (20 bytes).
    Removing stm32f4xx_hal_uart.o(i.UART_EndTxTransfer), (18 bytes).
    Removing stm32f4xx_hal_uart.o(i.UART_WaitOnFlagUntilTimeout), (100 bytes).
    Removing stm32f4xx_hal_cortex.o(.rev16_text), (4 bytes).
    Removing stm32f4xx_hal_cortex.o(.revsh_text), (4 bytes).
    Removing stm32f4xx_hal_cortex.o(.rrx_text), (6 bytes).
    Removing stm32f4xx_hal_cortex.o(i.HAL_MPU_ConfigRegion), (84 bytes).
    Removing stm32f4xx_hal_cortex.o(i.HAL_MPU_Disable), (28 bytes).
    Removing stm32f4xx_hal_cortex.o(i.HAL_MPU_Enable), (36 bytes).
    Removing stm32f4xx_hal_cortex.o(i.HAL_NVIC_ClearPendingIRQ), (22 bytes).
    Removing stm32f4xx_hal_cortex.o(i.HAL_NVIC_DisableIRQ), (22 bytes).
    Removing stm32f4xx_hal_cortex.o(i.HAL_NVIC_GetActive), (32 bytes).
    Removing stm32f4xx_hal_cortex.o(i.HAL_NVIC_GetPendingIRQ), (32 bytes).
    Removing stm32f4xx_hal_cortex.o(i.HAL_NVIC_GetPriority), (82 bytes).
    Removing stm32f4xx_hal_cortex.o(i.HAL_NVIC_GetPriorityGrouping), (16 bytes).
    Removing stm32f4xx_hal_cortex.o(i.HAL_NVIC_SetPendingIRQ), (22 bytes).
    Removing stm32f4xx_hal_cortex.o(i.HAL_NVIC_SystemReset), (36 bytes).
    Removing stm32f4xx_hal_dma_ex.o(.rev16_text), (4 bytes).
    Removing stm32f4xx_hal_dma_ex.o(.revsh_text), (4 bytes).
    Removing stm32f4xx_hal_dma_ex.o(.rrx_text), (6 bytes).
    Removing stm32f4xx_hal_dma_ex.o(i.DMA_MultiBufferSetConfig), (30 bytes).
    Removing stm32f4xx_hal_dma_ex.o(i.HAL_DMAEx_ChangeMemory), (14 bytes).
    Removing stm32f4xx_hal_dma_ex.o(i.HAL_DMAEx_MultiBufferStart), (100 bytes).
    Removing stm32f4xx_hal_dma_ex.o(i.HAL_DMAEx_MultiBufferStart_IT), (2452 bytes).
    Removing stm32f4xx_hal_flash_ex.o(.rev16_text), (4 bytes).
    Removing stm32f4xx_hal_flash_ex.o(.revsh_text), (4 bytes).
    Removing stm32f4xx_hal_flash_ex.o(.rrx_text), (6 bytes).
    Removing stm32f4xx_hal_flash_ex.o(i.FLASH_Erase_Sector), (88 bytes).
    Removing stm32f4xx_hal_flash_ex.o(i.FLASH_FlushCaches), (84 bytes).
    Removing stm32f4xx_hal_flash_ex.o(i.FLASH_MassErase), (40 bytes).
    Removing stm32f4xx_hal_flash_ex.o(i.HAL_FLASHEx_AdvOBGetConfig), (12 bytes).
    Removing stm32f4xx_hal_flash_ex.o(i.HAL_FLASHEx_AdvOBProgram), (60 bytes).
    Removing stm32f4xx_hal_flash_ex.o(i.HAL_FLASHEx_Erase), (152 bytes).
    Removing stm32f4xx_hal_flash_ex.o(i.HAL_FLASHEx_Erase_IT), (104 bytes).
    Removing stm32f4xx_hal_flash_ex.o(i.HAL_FLASHEx_OBGetConfig), (64 bytes).
    Removing stm32f4xx_hal_flash_ex.o(i.HAL_FLASHEx_OBProgram), (204 bytes).
    Removing stm32f4xx_hal_flash_ex.o(i.HAL_FLASHEx_OB_DeSelectPCROP), (20 bytes).
    Removing stm32f4xx_hal_flash_ex.o(i.HAL_FLASHEx_OB_SelectPCROP), (24 bytes).
    Removing stm32f4xx_hal_rtc_ex.o(.rev16_text), (4 bytes).
    Removing stm32f4xx_hal_rtc_ex.o(.revsh_text), (4 bytes).
    Removing stm32f4xx_hal_rtc_ex.o(.rrx_text), (6 bytes).
    Removing stm32f4xx_hal_rtc_ex.o(i.HAL_RTCEx_AlarmBEventCallback), (2 bytes).
    Removing stm32f4xx_hal_rtc_ex.o(i.HAL_RTCEx_DeactivateCalibrationOutPut), (56 bytes).
    Removing stm32f4xx_hal_rtc_ex.o(i.HAL_RTCEx_DeactivateCoarseCalib), (96 bytes).
    Removing stm32f4xx_hal_rtc_ex.o(i.HAL_RTCEx_DeactivateRefClock), (96 bytes).
    Removing stm32f4xx_hal_rtc_ex.o(i.HAL_RTCEx_DeactivateTamper), (38 bytes).
    Removing stm32f4xx_hal_rtc_ex.o(i.HAL_RTCEx_DeactivateTimeStamp), (70 bytes).
    Removing stm32f4xx_hal_rtc_ex.o(i.HAL_RTCEx_DeactivateWakeUpTimer), (122 bytes).
    Removing stm32f4xx_hal_rtc_ex.o(i.HAL_RTCEx_DisableBypassShadow), (56 bytes).
    Removing stm32f4xx_hal_rtc_ex.o(i.HAL_RTCEx_EnableBypassShadow), (56 bytes).
    Removing stm32f4xx_hal_rtc_ex.o(i.HAL_RTCEx_GetTimeStamp), (152 bytes).
    Removing stm32f4xx_hal_rtc_ex.o(i.HAL_RTCEx_GetWakeUpTimer), (8 bytes).
    Removing stm32f4xx_hal_rtc_ex.o(i.HAL_RTCEx_PollForAlarmBEvent), (66 bytes).
    Removing stm32f4xx_hal_rtc_ex.o(i.HAL_RTCEx_PollForTamper1Event), (66 bytes).
    Removing stm32f4xx_hal_rtc_ex.o(i.HAL_RTCEx_PollForTamper2Event), (66 bytes).
    Removing stm32f4xx_hal_rtc_ex.o(i.HAL_RTCEx_PollForTimeStampEvent), (78 bytes).
    Removing stm32f4xx_hal_rtc_ex.o(i.HAL_RTCEx_PollForWakeUpTimerEvent), (66 bytes).
    Removing stm32f4xx_hal_rtc_ex.o(i.HAL_RTCEx_SetCalibrationOutPut), (76 bytes).
    Removing stm32f4xx_hal_rtc_ex.o(i.HAL_RTCEx_SetCoarseCalib), (110 bytes).
    Removing stm32f4xx_hal_rtc_ex.o(i.HAL_RTCEx_SetRefClock), (96 bytes).
    Removing stm32f4xx_hal_rtc_ex.o(i.HAL_RTCEx_SetSmoothCalib), (130 bytes).
    Removing stm32f4xx_hal_rtc_ex.o(i.HAL_RTCEx_SetSynchroShift), (154 bytes).
    Removing stm32f4xx_hal_rtc_ex.o(i.HAL_RTCEx_SetTamper), (104 bytes).
    Removing stm32f4xx_hal_rtc_ex.o(i.HAL_RTCEx_SetTamper_IT), (164 bytes).
    Removing stm32f4xx_hal_rtc_ex.o(i.HAL_RTCEx_SetTimeStamp), (90 bytes).
    Removing stm32f4xx_hal_rtc_ex.o(i.HAL_RTCEx_SetTimeStamp_IT), (140 bytes).
    Removing stm32f4xx_hal_rtc_ex.o(i.HAL_RTCEx_SetWakeUpTimer), (194 bytes).
    Removing stm32f4xx_hal_rtc_ex.o(i.HAL_RTCEx_SetWakeUpTimer_IT), (248 bytes).
    Removing stm32f4xx_hal_rtc_ex.o(i.HAL_RTCEx_Tamper1EventCallback), (2 bytes).
    Removing stm32f4xx_hal_rtc_ex.o(i.HAL_RTCEx_Tamper2EventCallback), (2 bytes).
    Removing stm32f4xx_hal_rtc_ex.o(i.HAL_RTCEx_TamperTimeStampIRQHandler), (124 bytes).
    Removing stm32f4xx_hal_rtc_ex.o(i.HAL_RTCEx_TimeStampEventCallback), (2 bytes).
    Removing stm32f4xx_hal_rtc_ex.o(i.HAL_RTCEx_WakeUpTimerEventCallback), (2 bytes).
    Removing stm32f4xx_hal_rtc_ex.o(i.HAL_RTCEx_WakeUpTimerIRQHandler), (56 bytes).
    Removing stm32f4xx_hal_rtc.o(.rev16_text), (4 bytes).
    Removing stm32f4xx_hal_rtc.o(.revsh_text), (4 bytes).
    Removing stm32f4xx_hal_rtc.o(.rrx_text), (6 bytes).
    Removing stm32f4xx_hal_rtc.o(i.HAL_RTC_AlarmAEventCallback), (2 bytes).
    Removing stm32f4xx_hal_rtc.o(i.HAL_RTC_AlarmIRQHandler), (92 bytes).
    Removing stm32f4xx_hal_rtc.o(i.HAL_RTC_DeInit), (212 bytes).
    Removing stm32f4xx_hal_rtc.o(i.HAL_RTC_DeactivateAlarm), (178 bytes).
    Removing stm32f4xx_hal_rtc.o(i.HAL_RTC_GetAlarm), (126 bytes).
    Removing stm32f4xx_hal_rtc.o(i.HAL_RTC_GetState), (4 bytes).
    Removing stm32f4xx_hal_rtc.o(i.HAL_RTC_MspDeInit), (2 bytes).
    Removing stm32f4xx_hal_rtc.o(i.HAL_RTC_MspInit), (2 bytes).
    Removing stm32f4xx_hal_rtc.o(i.HAL_RTC_PollForAlarmAEvent), (66 bytes).
    Removing stm32f4xx_hal_rtc.o(i.HAL_RTC_SetAlarm), (352 bytes).
    Removing stm32f4xx_hal_rtc.o(i.HAL_RTC_SetAlarm_IT), (392 bytes).
    Removing stm32f4xx_hal_gpio.o(.rev16_text), (4 bytes).
    Removing stm32f4xx_hal_gpio.o(.revsh_text), (4 bytes).
    Removing stm32f4xx_hal_gpio.o(.rrx_text), (6 bytes).
    Removing stm32f4xx_hal_gpio.o(i.HAL_GPIO_DeInit), (272 bytes).
    Removing stm32f4xx_hal_gpio.o(i.HAL_GPIO_LockPin), (34 bytes).
    Removing stm32f4xx_hal_gpio.o(i.HAL_GPIO_TogglePin), (8 bytes).
    Removing stm32f4xx_hal_pwr.o(.rev16_text), (4 bytes).
    Removing stm32f4xx_hal_pwr.o(.revsh_text), (4 bytes).
    Removing stm32f4xx_hal_pwr.o(.rrx_text), (6 bytes).
    Removing stm32f4xx_hal_pwr.o(i.HAL_PWR_ConfigPVD), (124 bytes).
    Removing stm32f4xx_hal_pwr.o(i.HAL_PWR_DeInit), (24 bytes).
    Removing stm32f4xx_hal_pwr.o(i.HAL_PWR_DisableBkUpAccess), (28 bytes).
    Removing stm32f4xx_hal_pwr.o(i.HAL_PWR_DisablePVD), (24 bytes).
    Removing stm32f4xx_hal_pwr.o(i.HAL_PWR_DisableSEVOnPend), (16 bytes).
    Removing stm32f4xx_hal_pwr.o(i.HAL_PWR_DisableSleepOnExit), (16 bytes).
    Removing stm32f4xx_hal_pwr.o(i.HAL_PWR_DisableWakeUpPin), (16 bytes).
    Removing stm32f4xx_hal_pwr.o(i.HAL_PWR_EnablePVD), (24 bytes).
    Removing stm32f4xx_hal_pwr.o(i.HAL_PWR_EnableSEVOnPend), (16 bytes).
    Removing stm32f4xx_hal_pwr.o(i.HAL_PWR_EnableSleepOnExit), (16 bytes).
    Removing stm32f4xx_hal_pwr.o(i.HAL_PWR_EnableWakeUpPin), (16 bytes).
    Removing stm32f4xx_hal_pwr.o(i.HAL_PWR_EnterSLEEPMode), (32 bytes).
    Removing stm32f4xx_hal_pwr.o(i.HAL_PWR_EnterSTANDBYMode), (32 bytes).
    Removing stm32f4xx_hal_pwr.o(i.HAL_PWR_EnterSTOPMode), (56 bytes).
    Removing stm32f4xx_hal_pwr.o(i.HAL_PWR_PVDCallback), (2 bytes).
    Removing stm32f4xx_hal_pwr.o(i.HAL_PWR_PVD_IRQHandler), (28 bytes).
    Removing stm32f4xx_hal_dma.o(.rev16_text), (4 bytes).
    Removing stm32f4xx_hal_dma.o(.revsh_text), (4 bytes).
    Removing stm32f4xx_hal_dma.o(.rrx_text), (6 bytes).
    Removing stm32f4xx_hal_dma.o(i.HAL_DMA_Abort), (142 bytes).
    Removing stm32f4xx_hal_dma.o(i.HAL_DMA_DeInit), (86 bytes).
    Removing stm32f4xx_hal_dma.o(i.HAL_DMA_GetError), (4 bytes).
    Removing stm32f4xx_hal_dma.o(i.HAL_DMA_GetState), (6 bytes).
    Removing stm32f4xx_hal_dma.o(i.HAL_DMA_PollForTransfer), (300 bytes).
    Removing stm32f4xx_hal_dma.o(i.HAL_DMA_RegisterCallback), (80 bytes).
    Removing stm32f4xx_hal_dma.o(i.HAL_DMA_Start), (70 bytes).
    Removing stm32f4xx_hal_dma.o(i.HAL_DMA_UnRegisterCallback), (96 bytes).
    Removing stm32f4xx_hal_pwr_ex.o(.rev16_text), (4 bytes).
    Removing stm32f4xx_hal_pwr_ex.o(.revsh_text), (4 bytes).
    Removing stm32f4xx_hal_pwr_ex.o(.rrx_text), (6 bytes).
    Removing stm32f4xx_hal_pwr_ex.o(i.HAL_PWREx_ControlVoltageScaling), (176 bytes).
    Removing stm32f4xx_hal_pwr_ex.o(i.HAL_PWREx_DisableBkUpReg), (76 bytes).
    Removing stm32f4xx_hal_pwr_ex.o(i.HAL_PWREx_DisableFlashPowerDown), (28 bytes).
    Removing stm32f4xx_hal_pwr_ex.o(i.HAL_PWREx_DisableLowRegulatorLowVoltage), (28 bytes).
    Removing stm32f4xx_hal_pwr_ex.o(i.HAL_PWREx_DisableMainRegulatorLowVoltage), (28 bytes).
    Removing stm32f4xx_hal_pwr_ex.o(i.HAL_PWREx_EnableBkUpReg), (76 bytes).
    Removing stm32f4xx_hal_pwr_ex.o(i.HAL_PWREx_EnableFlashPowerDown), (24 bytes).
    Removing stm32f4xx_hal_pwr_ex.o(i.HAL_PWREx_EnableLowRegulatorLowVoltage), (24 bytes).
    Removing stm32f4xx_hal_pwr_ex.o(i.HAL_PWREx_EnableMainRegulatorLowVoltage), (24 bytes).
    Removing stm32f4xx_hal_pwr_ex.o(i.HAL_PWREx_GetVoltageRange), (16 bytes).
    Removing stm32f4xx_hal_flash_ramfunc.o(.rev16_text), (4 bytes).
    Removing stm32f4xx_hal_flash_ramfunc.o(.revsh_text), (4 bytes).
    Removing stm32f4xx_hal_flash_ramfunc.o(.rrx_text), (6 bytes).
    Removing dht11.o(.rev16_text), (4 bytes).
    Removing dht11.o(.revsh_text), (4 bytes).
    Removing dht11.o(.rrx_text), (6 bytes).
    Removing dht11.o(i.micros), (2 bytes).
    Removing dht11.o(i.millis), (2 bytes).
    Removing stm_my_lcd16x2.o(.rev16_text), (4 bytes).
    Removing stm_my_lcd16x2.o(.revsh_text), (4 bytes).
    Removing stm_my_lcd16x2.o(.rrx_text), (6 bytes).
    Removing stm_my_lcd16x2.o(i.LCD_OneLine), (32 bytes).
    Removing stm_my_lcd16x2.o(i.LCD_begin8BIT), (132 bytes).
    Removing stm_my_lcd16x2.o(i.LCD_blink), (32 bytes).
    Removing stm_my_lcd16x2.o(i.LCD_cursor), (32 bytes).
    Removing stm_my_lcd16x2.o(i.LCD_display), (32 bytes).
    Removing stm_my_lcd16x2.o(i.LCD_ftoa), (140 bytes).
    Removing stm_my_lcd16x2.o(i.LCD_itoa), (80 bytes).
    Removing stm_my_lcd16x2.o(i.LCD_noBlink), (32 bytes).
    Removing stm_my_lcd16x2.o(i.LCD_noDisplay), (32 bytes).
    Removing stm_my_lcd16x2.o(i.LCD_print), (28 bytes).
    Removing stm_my_lcd16x2.o(i.LCD_shiftToLeft), (30 bytes).
    Removing stm_my_lcd16x2.o(i.LCD_shiftToRight), (30 bytes).
    Removing stm_my_lcd16x2.o(i.intToStr), (74 bytes).
    Removing menu.o(.rev16_text), (4 bytes).
    Removing menu.o(.revsh_text), (4 bytes).
    Removing menu.o(.rrx_text), (6 bytes).
    Removing menu.o(i.mnu_efectos_elemento_menu), (56 bytes).
    Removing menu.o(i.mnu_establecer_funcion_ejecutar), (12 bytes).
    Removing menu.o(i.mnu_establecer_funcion_periodica_ejecutar), (12 bytes).
    Removing controlambiental.o(.rev16_text), (4 bytes).
    Removing controlambiental.o(.revsh_text), (4 bytes).
    Removing controlambiental.o(.rrx_text), (6 bytes).
    Removing humamb.o(.rev16_text), (4 bytes).
    Removing humamb.o(.revsh_text), (4 bytes).
    Removing humamb.o(.rrx_text), (6 bytes).
    Removing humcomp.o(.rev16_text), (4 bytes).
    Removing humcomp.o(.revsh_text), (4 bytes).
    Removing humcomp.o(.rrx_text), (6 bytes).
    Removing humtemp.o(.rev16_text), (4 bytes).
    Removing humtemp.o(.revsh_text), (4 bytes).
    Removing humtemp.o(.rrx_text), (6 bytes).
    Removing light.o(.rev16_text), (4 bytes).
    Removing light.o(.revsh_text), (4 bytes).
    Removing light.o(.rrx_text), (6 bytes).
    Removing light.o(.constdata), (1 bytes).
    Removing light.o(.constdata), (1 bytes).
    Removing soilhumidity.o(.rev16_text), (4 bytes).
    Removing soilhumidity.o(.revsh_text), (4 bytes).
    Removing soilhumidity.o(.rrx_text), (6 bytes).
    Removing soilhumidity.o(.constdata), (1 bytes).
    Removing soilhumidity.o(.constdata), (1 bytes).
    Removing soilhumidity.o(.constdata), (1 bytes).
    Removing tempamb.o(.rev16_text), (4 bytes).
    Removing tempamb.o(.revsh_text), (4 bytes).
    Removing tempamb.o(.rrx_text), (6 bytes).
    Removing tempcomp.o(.rev16_text), (4 bytes).
    Removing tempcomp.o(.revsh_text), (4 bytes).
    Removing tempcomp.o(.rrx_text), (6 bytes).
    Removing tempmcu.o(.rev16_text), (4 bytes).
    Removing tempmcu.o(.revsh_text), (4 bytes).
    Removing tempmcu.o(.rrx_text), (6 bytes).
    Removing at.o(i.AT_tramaParse), (80 bytes).
    Removing at.o(i.CBAND), (64 bytes).
    Removing at.o(i.CBC), (36 bytes).
    Removing at.o(i.CCLK), (64 bytes).
    Removing at.o(i.CGSN), (40 bytes).
    Removing at.o(i.CIPPING), (64 bytes).
    Removing at.o(i.CMGL), (48 bytes).
    Removing at.o(i.CPIN), (64 bytes).
    Removing at.o(i.CPMS), (80 bytes).
    Removing at.o(i.CPOWD), (56 bytes).
    Removing at.o(i.CSDH), (48 bytes).
    Removing at.o(i.CSQ), (36 bytes).
    Removing at.o(i.CSTT), (64 bytes).
    Removing at.o(i.CheckATResponse), (112 bytes).
    Removing at.o(i.Cmd_ATI), (28 bytes).
    Removing at.o(i.Cmd_ATW), (40 bytes).
    Removing at.o(i.FTPCLOSE), (44 bytes).
    Removing at.o(i.FTPCWD), (60 bytes).
    Removing at.o(i.FTPDEL), (60 bytes).
    Removing at.o(i.FTPOPEN), (88 bytes).
    Removing at.o(i.FTPRETR), (68 bytes).
    Removing at.o(i.FTPSTOR), (68 bytes).
    Removing at.o(i.GSV), (36 bytes).
    Removing at.o(i.MIPCALL), (128 bytes).
    Removing at.o(i.MIPCLOSE), (68 bytes).
    Removing at.o(i.MIPOPEN), (140 bytes).
    Removing at.o(i.MIPSEND), (68 bytes).
    Removing at.o(i.MIPSETS), (68 bytes).
    Removing at.o(i.MPING), (72 bytes).
    Removing at.o(i.ParseAt), (72 bytes).
    Removing at.o(i._AT_hash), (24 bytes).
    Removing at.o(i.at_parser_store), (136 bytes).
    Removing at.o(.bss), (840 bytes).
    Removing fibocom.o(.rev16_text), (4 bytes).
    Removing fibocom.o(.revsh_text), (4 bytes).
    Removing fibocom.o(.rrx_text), (6 bytes).
    Removing fibocom.o(i.Module_Write), (20 bytes).
    Removing fibocom.o(i.fibocom_Get_estado), (4 bytes).
    Removing fibocom.o(i.fibocom_off), (2 bytes).
    Removing fibocom.o(i.fibocom_on), (2 bytes).
    Removing fibocom.o(i.fibocom_reset), (2 bytes).
    Removing fibocom.o(i.fibocom_set_pwon), (2 bytes).
    Removing funcioninicializacion.o(.rev16_text), (4 bytes).
    Removing funcioninicializacion.o(.revsh_text), (4 bytes).
    Removing funcioninicializacion.o(.rrx_text), (6 bytes).
    Removing confggsm.o(.rev16_text), (4 bytes).
    Removing confggsm.o(.revsh_text), (4 bytes).
    Removing confggsm.o(.rrx_text), (6 bytes).
    Removing confggprs.o(.rev16_text), (4 bytes).
    Removing confggprs.o(.revsh_text), (4 bytes).
    Removing confggprs.o(.rrx_text), (6 bytes).
    Removing responsesms.o(.rev16_text), (4 bytes).
    Removing responsesms.o(.revsh_text), (4 bytes).
    Removing responsesms.o(.rrx_text), (6 bytes).
    Removing sendmessage.o(.rev16_text), (4 bytes).
    Removing sendmessage.o(.revsh_text), (4 bytes).
    Removing sendmessage.o(.rrx_text), (6 bytes).
    Removing gethttp.o(.rev16_text), (4 bytes).
    Removing gethttp.o(.revsh_text), (4 bytes).
    Removing gethttp.o(.rrx_text), (6 bytes).
    Removing gethttp.o(i.GETHTTP), (652 bytes).
    Removing gethttp.o(.data), (4 bytes).
    Removing posthttp.o(.rev16_text), (4 bytes).
    Removing posthttp.o(.revsh_text), (4 bytes).
    Removing posthttp.o(.rrx_text), (6 bytes).
    Removing system_stm32f4xx.o(.rev16_text), (4 bytes).
    Removing system_stm32f4xx.o(.revsh_text), (4 bytes).
    Removing system_stm32f4xx.o(.rrx_text), (6 bytes).
    Removing system_stm32f4xx.o(i.SystemCoreClockUpdate), (120 bytes).
    Removing main.o(.rev16_text), (4 bytes).
    Removing main.o(.revsh_text), (4 bytes).
    Removing main.o(.rrx_text), (6 bytes).
    Removing main.o(.bss), (500 bytes).
    Removing main.o(.constdata), (2 bytes).
    Removing main.o(.data), (4 bytes).
    Removing main.o(.data), (4 bytes).
    Removing main.o(.data), (4 bytes).
    Removing main.o(.data), (1 bytes).
    Removing main.o(.data), (1 bytes).
    Removing stm32f4xx_hal_msp.o(.rev16_text), (4 bytes).
    Removing stm32f4xx_hal_msp.o(.revsh_text), (4 bytes).
    Removing stm32f4xx_hal_msp.o(.rrx_text), (6 bytes).
    Removing stm32f4xx_hal_msp.o(i.HAL_ADC_MspDeInit), (80 bytes).
    Removing stm32f4xx_hal_msp.o(i.HAL_RTC_MspDeInit), (24 bytes).
    Removing stm32f4xx_hal_msp.o(i.HAL_TIM_Base_MspDeInit), (48 bytes).
    Removing stm32f4xx_hal_msp.o(i.HAL_UART_MspDeInit), (52 bytes).
    Removing stm32f4xx_it.o(.rev16_text), (4 bytes).
    Removing stm32f4xx_it.o(.revsh_text), (4 bytes).
    Removing stm32f4xx_it.o(.rrx_text), (6 bytes).
    Removing startup_stm32f401xe.o(HEAP), (512 bytes).
    Removing dflti.o(.text), (34 bytes).
    Removing f2d.o(.text), (38 bytes).
    Removing d2f.o(.text), (56 bytes).
    Removing fepilogue.o(.text), (110 bytes).
    Removing ddiv.o(.text), (222 bytes).
    Removing dneg.o(.text), (6 bytes).
    Removing dscalb.o(.text), (46 bytes).
    Removing dfixul.o(.text), (48 bytes).
    Removing cdrcmple.o(.text), (48 bytes).
    Removing dsqrt.o(.text), (162 bytes).
    Removing cdcmple.o(.text), (48 bytes).

566 unused section(s) (total 34553 bytes) removed from the image.

==============================================================================

Image Symbol Table

    Local Symbols

    Symbol Name                              Value     Ov Type        Size  Object(Section)

    ../Drivers/STM32F4xx_HAL_Driver/Src/stm32f4xx_hal.c 0x00000000   Number         0  stm32f4xx_hal.o ABSOLUTE
    ../Drivers/STM32F4xx_HAL_Driver/Src/stm32f4xx_hal_adc.c 0x00000000   Number         0  stm32f4xx_hal_adc.o ABSOLUTE
    ../Drivers/STM32F4xx_HAL_Driver/Src/stm32f4xx_hal_adc_ex.c 0x00000000   Number         0  stm32f4xx_hal_adc_ex.o ABSOLUTE
    ../Drivers/STM32F4xx_HAL_Driver/Src/stm32f4xx_hal_cortex.c 0x00000000   Number         0  stm32f4xx_hal_cortex.o ABSOLUTE
    ../Drivers/STM32F4xx_HAL_Driver/Src/stm32f4xx_hal_dma.c 0x00000000   Number         0  stm32f4xx_hal_dma.o ABSOLUTE
    ../Drivers/STM32F4xx_HAL_Driver/Src/stm32f4xx_hal_dma_ex.c 0x00000000   Number         0  stm32f4xx_hal_dma_ex.o ABSOLUTE
    ../Drivers/STM32F4xx_HAL_Driver/Src/stm32f4xx_hal_flash.c 0x00000000   Number         0  stm32f4xx_hal_flash.o ABSOLUTE
    ../Drivers/STM32F4xx_HAL_Driver/Src/stm32f4xx_hal_flash_ex.c 0x00000000   Number         0  stm32f4xx_hal_flash_ex.o ABSOLUTE
    ../Drivers/STM32F4xx_HAL_Driver/Src/stm32f4xx_hal_flash_ramfunc.c 0x00000000   Number         0  stm32f4xx_hal_flash_ramfunc.o ABSOLUTE
    ../Drivers/STM32F4xx_HAL_Driver/Src/stm32f4xx_hal_gpio.c 0x00000000   Number         0  stm32f4xx_hal_gpio.o ABSOLUTE
    ../Drivers/STM32F4xx_HAL_Driver/Src/stm32f4xx_hal_pwr.c 0x00000000   Number         0  stm32f4xx_hal_pwr.o ABSOLUTE
    ../Drivers/STM32F4xx_HAL_Driver/Src/stm32f4xx_hal_pwr_ex.c 0x00000000   Number         0  stm32f4xx_hal_pwr_ex.o ABSOLUTE
    ../Drivers/STM32F4xx_HAL_Driver/Src/stm32f4xx_hal_rcc.c 0x00000000   Number         0  stm32f4xx_hal_rcc.o ABSOLUTE
    ../Drivers/STM32F4xx_HAL_Driver/Src/stm32f4xx_hal_rcc_ex.c 0x00000000   Number         0  stm32f4xx_hal_rcc_ex.o ABSOLUTE
    ../Drivers/STM32F4xx_HAL_Driver/Src/stm32f4xx_hal_rtc.c 0x00000000   Number         0  stm32f4xx_hal_rtc.o ABSOLUTE
    ../Drivers/STM32F4xx_HAL_Driver/Src/stm32f4xx_hal_rtc_ex.c 0x00000000   Number         0  stm32f4xx_hal_rtc_ex.o ABSOLUTE
    ../Drivers/STM32F4xx_HAL_Driver/Src/stm32f4xx_hal_tim.c 0x00000000   Number         0  stm32f4xx_hal_tim.o ABSOLUTE
    ../Drivers/STM32F4xx_HAL_Driver/Src/stm32f4xx_hal_tim_ex.c 0x00000000   Number         0  stm32f4xx_hal_tim_ex.o ABSOLUTE
    ../Drivers/STM32F4xx_HAL_Driver/Src/stm32f4xx_hal_uart.c 0x00000000   Number         0  stm32f4xx_hal_uart.o ABSOLUTE
    ../Src/main.c                            0x00000000   Number         0  main.o ABSOLUTE
    ../Src/stm32f4xx_hal_msp.c               0x00000000   Number         0  stm32f4xx_hal_msp.o ABSOLUTE
    ../Src/stm32f4xx_it.c                    0x00000000   Number         0  stm32f4xx_it.o ABSOLUTE
    ../Src/system_stm32f4xx.c                0x00000000   Number         0  system_stm32f4xx.o ABSOLUTE
    ../clib/../cmprslib/lz77c.c              0x00000000   Number         0  __dclz77c.o ABSOLUTE
    ../clib/microlib/division.c              0x00000000   Number         0  uldiv.o ABSOLUTE
    ../clib/microlib/division.c              0x00000000   Number         0  uidiv.o ABSOLUTE
    ../clib/microlib/errno.c                 0x00000000   Number         0  errno.o ABSOLUTE
    ../clib/microlib/init/entry.s            0x00000000   Number         0  entry8b.o ABSOLUTE
    ../clib/microlib/init/entry.s            0x00000000   Number         0  entry11b.o ABSOLUTE
    ../clib/microlib/init/entry.s            0x00000000   Number         0  entry11a.o ABSOLUTE
    ../clib/microlib/init/entry.s            0x00000000   Number         0  entry10b.o ABSOLUTE
    ../clib/microlib/init/entry.s            0x00000000   Number         0  entry10a.o ABSOLUTE
    ../clib/microlib/init/entry.s            0x00000000   Number         0  entry9b.o ABSOLUTE
    ../clib/microlib/init/entry.s            0x00000000   Number         0  entry9a.o ABSOLUTE
    ../clib/microlib/init/entry.s            0x00000000   Number         0  entry.o ABSOLUTE
    ../clib/microlib/init/entry.s            0x00000000   Number         0  entry8a.o ABSOLUTE
    ../clib/microlib/init/entry.s            0x00000000   Number         0  entry7a.o ABSOLUTE
    ../clib/microlib/init/entry.s            0x00000000   Number         0  entry5.o ABSOLUTE
    ../clib/microlib/init/entry.s            0x00000000   Number         0  entry2.o ABSOLUTE
    ../clib/microlib/init/entry.s            0x00000000   Number         0  entry7b.o ABSOLUTE
    ../clib/microlib/longlong.c              0x00000000   Number         0  llsshr.o ABSOLUTE
    ../clib/microlib/longlong.c              0x00000000   Number         0  llushr.o ABSOLUTE
    ../clib/microlib/longlong.c              0x00000000   Number         0  llshl.o ABSOLUTE
    ../clib/microlib/printf/printf.c         0x00000000   Number         0  printfb.o ABSOLUTE
    ../clib/microlib/printf/printf.c         0x00000000   Number         0  printf0.o ABSOLUTE
    ../clib/microlib/printf/printf.c         0x00000000   Number         0  printf1.o ABSOLUTE
    ../clib/microlib/printf/printf.c         0x00000000   Number         0  printf2.o ABSOLUTE
    ../clib/microlib/printf/printf.c         0x00000000   Number         0  printf3.o ABSOLUTE
    ../clib/microlib/printf/printf.c         0x00000000   Number         0  printf4.o ABSOLUTE
    ../clib/microlib/printf/printf.c         0x00000000   Number         0  printf6.o ABSOLUTE
    ../clib/microlib/printf/printf.c         0x00000000   Number         0  printf7.o ABSOLUTE
    ../clib/microlib/printf/printf.c         0x00000000   Number         0  printf5.o ABSOLUTE
    ../clib/microlib/printf/printf.c         0x00000000   Number         0  printf8.o ABSOLUTE
    ../clib/microlib/printf/printf.c         0x00000000   Number         0  printfa.o ABSOLUTE
    ../clib/microlib/printf/stubs.s          0x00000000   Number         0  stubs.o ABSOLUTE
    ../clib/microlib/stdio/fputc.c           0x00000000   Number         0  fputc.o ABSOLUTE
    ../clib/microlib/stdio/semi.s            0x00000000   Number         0  semi.o ABSOLUTE
    ../clib/microlib/stdio/streams.c         0x00000000   Number         0  stdout.o ABSOLUTE
    ../clib/microlib/string/memcmp.c         0x00000000   Number         0  memcmp.o ABSOLUTE
    ../clib/microlib/string/memcpy.c         0x00000000   Number         0  memcpyb.o ABSOLUTE
    ../clib/microlib/string/memcpy.c         0x00000000   Number         0  memcpya.o ABSOLUTE
    ../clib/microlib/string/memset.c         0x00000000   Number         0  memseta.o ABSOLUTE
    ../clib/microlib/string/strcat.c         0x00000000   Number         0  strcat.o ABSOLUTE
    ../clib/microlib/string/strcmp.c         0x00000000   Number         0  strcmp.o ABSOLUTE
    ../clib/microlib/string/strcpy.c         0x00000000   Number         0  strcpy.o ABSOLUTE
    ../clib/microlib/string/strlen.c         0x00000000   Number         0  strlen.o ABSOLUTE
    ../clib/microlib/string/strncpy.c        0x00000000   Number         0  strncpy.o ABSOLUTE
    ../clib/microlib/string/strtok.c         0x00000000   Number         0  strtok.o ABSOLUTE
    ../clib/microlib/string/strtok.c         0x00000000   Number         0  strtok_r.o ABSOLUTE
    ../clib/microlib/stubs.s                 0x00000000   Number         0  iusesemip.o ABSOLUTE
    ../clib/microlib/stubs.s                 0x00000000   Number         0  iusefp.o ABSOLUTE
    ../fplib/microlib/d2f.c                  0x00000000   Number         0  d2f.o ABSOLUTE
    ../fplib/microlib/f2d.c                  0x00000000   Number         0  f2d.o ABSOLUTE
    ../fplib/microlib/fpadd.c                0x00000000   Number         0  dadd.o ABSOLUTE
    ../fplib/microlib/fpdiv.c                0x00000000   Number         0  ddiv.o ABSOLUTE
    ../fplib/microlib/fpepilogue.c           0x00000000   Number         0  depilogue.o ABSOLUTE
    ../fplib/microlib/fpepilogue.c           0x00000000   Number         0  fepilogue.o ABSOLUTE
    ../fplib/microlib/fpfix.c                0x00000000   Number         0  dfixul.o ABSOLUTE
    ../fplib/microlib/fpfix.c                0x00000000   Number         0  dfixui.o ABSOLUTE
    ../fplib/microlib/fpflt.c                0x00000000   Number         0  dfltui.o ABSOLUTE
    ../fplib/microlib/fpflt.c                0x00000000   Number         0  dflti.o ABSOLUTE
    ../fplib/microlib/fpmul.c                0x00000000   Number         0  dmul.o ABSOLUTE
    ../fplib/microlib/fpneg.c                0x00000000   Number         0  dneg.o ABSOLUTE
    ../fplib/microlib/fpscalb.c              0x00000000   Number         0  dscalb.o ABSOLUTE
    ../fplib/microlib/fpsqrt.c               0x00000000   Number         0  dsqrt.o ABSOLUTE
    ../mathlib/dunder.c                      0x00000000   Number         0  dunder.o ABSOLUTE
    ../mathlib/fabs.c                        0x00000000   Number         0  fabs.o ABSOLUTE
    ../mathlib/fpclassify.c                  0x00000000   Number         0  fpclassify.o ABSOLUTE
    ../mathlib/poly.c                        0x00000000   Number         0  poly.o ABSOLUTE
    ../mathlib/pow.c                         0x00000000   Number         0  pow.o ABSOLUTE
    ../mathlib/pow.c                         0x00000000   Number         0  pow_x.o ABSOLUTE
    ../mathlib/qnan.c                        0x00000000   Number         0  qnan.o ABSOLUTE
    ../mathlib/sqrt.c                        0x00000000   Number         0  sqrt.o ABSOLUTE
    ../mathlib/sqrt.c                        0x00000000   Number         0  sqrt_x.o ABSOLUTE
    ..\Drivers\STM32F4xx_HAL_Driver\Src\stm32f4xx_hal.c 0x00000000   Number         0  stm32f4xx_hal.o ABSOLUTE
    ..\Drivers\STM32F4xx_HAL_Driver\Src\stm32f4xx_hal_adc.c 0x00000000   Number         0  stm32f4xx_hal_adc.o ABSOLUTE
    ..\Drivers\STM32F4xx_HAL_Driver\Src\stm32f4xx_hal_adc_ex.c 0x00000000   Number         0  stm32f4xx_hal_adc_ex.o ABSOLUTE
    ..\Drivers\STM32F4xx_HAL_Driver\Src\stm32f4xx_hal_cortex.c 0x00000000   Number         0  stm32f4xx_hal_cortex.o ABSOLUTE
    ..\Drivers\STM32F4xx_HAL_Driver\Src\stm32f4xx_hal_dma.c 0x00000000   Number         0  stm32f4xx_hal_dma.o ABSOLUTE
    ..\Drivers\STM32F4xx_HAL_Driver\Src\stm32f4xx_hal_dma_ex.c 0x00000000   Number         0  stm32f4xx_hal_dma_ex.o ABSOLUTE
    ..\Drivers\STM32F4xx_HAL_Driver\Src\stm32f4xx_hal_flash.c 0x00000000   Number         0  stm32f4xx_hal_flash.o ABSOLUTE
    ..\Drivers\STM32F4xx_HAL_Driver\Src\stm32f4xx_hal_flash_ex.c 0x00000000   Number         0  stm32f4xx_hal_flash_ex.o ABSOLUTE
    ..\Drivers\STM32F4xx_HAL_Driver\Src\stm32f4xx_hal_flash_ramfunc.c 0x00000000   Number         0  stm32f4xx_hal_flash_ramfunc.o ABSOLUTE
    ..\Drivers\STM32F4xx_HAL_Driver\Src\stm32f4xx_hal_gpio.c 0x00000000   Number         0  stm32f4xx_hal_gpio.o ABSOLUTE
    ..\Drivers\STM32F4xx_HAL_Driver\Src\stm32f4xx_hal_pwr.c 0x00000000   Number         0  stm32f4xx_hal_pwr.o ABSOLUTE
    ..\Drivers\STM32F4xx_HAL_Driver\Src\stm32f4xx_hal_pwr_ex.c 0x00000000   Number         0  stm32f4xx_hal_pwr_ex.o ABSOLUTE
    ..\Drivers\STM32F4xx_HAL_Driver\Src\stm32f4xx_hal_rcc.c 0x00000000   Number         0  stm32f4xx_hal_rcc.o ABSOLUTE
    ..\Drivers\STM32F4xx_HAL_Driver\Src\stm32f4xx_hal_rcc_ex.c 0x00000000   Number         0  stm32f4xx_hal_rcc_ex.o ABSOLUTE
    ..\Drivers\STM32F4xx_HAL_Driver\Src\stm32f4xx_hal_rtc.c 0x00000000   Number         0  stm32f4xx_hal_rtc.o ABSOLUTE
    ..\Drivers\STM32F4xx_HAL_Driver\Src\stm32f4xx_hal_rtc_ex.c 0x00000000   Number         0  stm32f4xx_hal_rtc_ex.o ABSOLUTE
    ..\Drivers\STM32F4xx_HAL_Driver\Src\stm32f4xx_hal_tim.c 0x00000000   Number         0  stm32f4xx_hal_tim.o ABSOLUTE
    ..\Drivers\STM32F4xx_HAL_Driver\Src\stm32f4xx_hal_tim_ex.c 0x00000000   Number         0  stm32f4xx_hal_tim_ex.o ABSOLUTE
    ..\Drivers\STM32F4xx_HAL_Driver\Src\stm32f4xx_hal_uart.c 0x00000000   Number         0  stm32f4xx_hal_uart.o ABSOLUTE
    ..\Lib\DHT11\DHT11.c                     0x00000000   Number         0  dht11.o ABSOLUTE
    ..\Lib\GPRS\src\AT.c                     0x00000000   Number         0  at.o ABSOLUTE
    ..\Lib\GPRS\src\Fibocom.c                0x00000000   Number         0  fibocom.o ABSOLUTE
    ..\Lib\LCD\STM_MY_LCD16X2.c              0x00000000   Number         0  stm_my_lcd16x2.o ABSOLUTE
    ..\Lib\Menu\menu.c                       0x00000000   Number         0  menu.o ABSOLUTE
    ..\Src\Drivers\confgGPRS.c               0x00000000   Number         0  confggprs.o ABSOLUTE
    ..\Src\Drivers\confgGSM.c                0x00000000   Number         0  confggsm.o ABSOLUTE
    ..\Src\Drivers\controlAmbiental.c        0x00000000   Number         0  controlambiental.o ABSOLUTE
    ..\Src\Drivers\ctrlFase.c                0x00000000   Number         0  ctrlfase.o ABSOLUTE
    ..\Src\Drivers\fase.c                    0x00000000   Number         0  fase.o ABSOLUTE
    ..\Src\Drivers\funcionInicializacion.c   0x00000000   Number         0  funcioninicializacion.o ABSOLUTE
    ..\Src\Drivers\getHTTP.c                 0x00000000   Number         0  gethttp.o ABSOLUTE
    ..\Src\Drivers\humAmb.c                  0x00000000   Number         0  humamb.o ABSOLUTE
    ..\Src\Drivers\humComp.c                 0x00000000   Number         0  humcomp.o ABSOLUTE
    ..\Src\Drivers\humTemp.c                 0x00000000   Number         0  humtemp.o ABSOLUTE
    ..\Src\Drivers\light.c                   0x00000000   Number         0  light.o ABSOLUTE
    ..\Src\Drivers\postHTTP.c                0x00000000   Number         0  posthttp.o ABSOLUTE
    ..\Src\Drivers\responseSMS.c             0x00000000   Number         0  responsesms.o ABSOLUTE
    ..\Src\Drivers\sendMessage.c             0x00000000   Number         0  sendmessage.o ABSOLUTE
    ..\Src\Drivers\soilHumidity.c            0x00000000   Number         0  soilhumidity.o ABSOLUTE
    ..\Src\Drivers\tempAmb.c                 0x00000000   Number         0  tempamb.o ABSOLUTE
    ..\Src\Drivers\tempComp.c                0x00000000   Number         0  tempcomp.o ABSOLUTE
    ..\Src\Drivers\tempMCU.c                 0x00000000   Number         0  tempmcu.o ABSOLUTE
    ..\Src\main.c                            0x00000000   Number         0  main.o ABSOLUTE
    ..\Src\stm32f4xx_hal_msp.c               0x00000000   Number         0  stm32f4xx_hal_msp.o ABSOLUTE
    ..\Src\stm32f4xx_it.c                    0x00000000   Number         0  stm32f4xx_it.o ABSOLUTE
    ..\Src\system_stm32f4xx.c                0x00000000   Number         0  system_stm32f4xx.o ABSOLUTE
    ..\\Lib\\DHT11\\DHT11.c                  0x00000000   Number         0  dht11.o ABSOLUTE
    ..\\Lib\\GPRS\\src\\Fibocom.c            0x00000000   Number         0  fibocom.o ABSOLUTE
    ..\\Lib\\LCD\\STM_MY_LCD16X2.c           0x00000000   Number         0  stm_my_lcd16x2.o ABSOLUTE
    ..\\Lib\\Menu\\menu.c                    0x00000000   Number         0  menu.o ABSOLUTE
    ..\\Src\\Drivers\\confgGPRS.c            0x00000000   Number         0  confggprs.o ABSOLUTE
    ..\\Src\\Drivers\\confgGSM.c             0x00000000   Number         0  confggsm.o ABSOLUTE
    ..\\Src\\Drivers\\controlAmbiental.c     0x00000000   Number         0  controlambiental.o ABSOLUTE
    ..\\Src\\Drivers\\funcionInicializacion.c 0x00000000   Number         0  funcioninicializacion.o ABSOLUTE
    ..\\Src\\Drivers\\getHTTP.c              0x00000000   Number         0  gethttp.o ABSOLUTE
    ..\\Src\\Drivers\\humAmb.c               0x00000000   Number         0  humamb.o ABSOLUTE
    ..\\Src\\Drivers\\humComp.c              0x00000000   Number         0  humcomp.o ABSOLUTE
    ..\\Src\\Drivers\\humTemp.c              0x00000000   Number         0  humtemp.o ABSOLUTE
    ..\\Src\\Drivers\\light.c                0x00000000   Number         0  light.o ABSOLUTE
    ..\\Src\\Drivers\\postHTTP.c             0x00000000   Number         0  posthttp.o ABSOLUTE
    ..\\Src\\Drivers\\responseSMS.c          0x00000000   Number         0  responsesms.o ABSOLUTE
    ..\\Src\\Drivers\\sendMessage.c          0x00000000   Number         0  sendmessage.o ABSOLUTE
    ..\\Src\\Drivers\\soilHumidity.c         0x00000000   Number         0  soilhumidity.o ABSOLUTE
    ..\\Src\\Drivers\\tempAmb.c              0x00000000   Number         0  tempamb.o ABSOLUTE
    ..\\Src\\Drivers\\tempComp.c             0x00000000   Number         0  tempcomp.o ABSOLUTE
    ..\\Src\\Drivers\\tempMCU.c              0x00000000   Number         0  tempmcu.o ABSOLUTE
    cdcmple.s                                0x00000000   Number         0  cdcmple.o ABSOLUTE
    cdrcmple.s                               0x00000000   Number         0  cdrcmple.o ABSOLUTE
    dc.s                                     0x00000000   Number         0  dc.o ABSOLUTE
    handlers.s                               0x00000000   Number         0  handlers.o ABSOLUTE
    init.s                                   0x00000000   Number         0  init.o ABSOLUTE
    startup_stm32f401xe.s                    0x00000000   Number         0  startup_stm32f401xe.o ABSOLUTE
    RESET                                    0x08000000   Section      404  startup_stm32f401xe.o(RESET)
    .ARM.Collect$$$$00000000                 0x08000194   Section        0  entry.o(.ARM.Collect$$$$00000000)
    .ARM.Collect$$$$00000001                 0x08000194   Section        4  entry2.o(.ARM.Collect$$$$00000001)
    .ARM.Collect$$$$00000004                 0x08000198   Section        4  entry5.o(.ARM.Collect$$$$00000004)
    .ARM.Collect$$$$00000008                 0x0800019c   Section        0  entry7b.o(.ARM.Collect$$$$00000008)
    .ARM.Collect$$$$0000000A                 0x0800019c   Section        0  entry8b.o(.ARM.Collect$$$$0000000A)
    .ARM.Collect$$$$0000000B                 0x0800019c   Section        8  entry9a.o(.ARM.Collect$$$$0000000B)
    .ARM.Collect$$$$0000000D                 0x080001a4   Section        0  entry10a.o(.ARM.Collect$$$$0000000D)
    .ARM.Collect$$$$0000000F                 0x080001a4   Section        0  entry11a.o(.ARM.Collect$$$$0000000F)
    .ARM.Collect$$$$00002712                 0x080001a4   Section        4  entry2.o(.ARM.Collect$$$$00002712)
    __lit__00000000                          0x080001a4   Data           4  entry2.o(.ARM.Collect$$$$00002712)
    .text                                    0x080001a8   Section       36  startup_stm32f401xe.o(.text)
    $v0                                      0x080001a8   Number         0  startup_stm32f401xe.o(.text)
    .text                                    0x080001cc   Section        0  memcpya.o(.text)
    .text                                    0x080001f0   Section        0  memseta.o(.text)
    .text                                    0x08000214   Section        0  strcat.o(.text)
    .text                                    0x0800022c   Section        0  strlen.o(.text)
    .text                                    0x0800023a   Section        0  memcmp.o(.text)
    .text                                    0x08000254   Section        0  strcpy.o(.text)
    .text                                    0x08000266   Section        0  dadd.o(.text)
    .text                                    0x080003b4   Section        0  dmul.o(.text)
    .text                                    0x08000498   Section        0  dfltui.o(.text)
    .text                                    0x080004b2   Section        0  dfixui.o(.text)
    .text                                    0x080004e4   Section        0  uidiv.o(.text)
    .text                                    0x08000510   Section        0  llshl.o(.text)
    .text                                    0x0800052e   Section        0  llushr.o(.text)
    .text                                    0x0800054e   Section        0  llsshr.o(.text)
    .text                                    0x08000572   Section        0  iusefp.o(.text)
    .text                                    0x08000572   Section        0  depilogue.o(.text)
    .text                                    0x0800062c   Section       36  init.o(.text)
    .text                                    0x08000650   Section        0  __dclz77c.o(.text)
    i.ADC_DMAConvCplt                        0x080006ae   Section        0  stm32f4xx_hal_adc.o(i.ADC_DMAConvCplt)
    ADC_DMAConvCplt                          0x080006af   Thumb Code    98  stm32f4xx_hal_adc.o(i.ADC_DMAConvCplt)
    i.ADC_DMAError                           0x08000710   Section        0  stm32f4xx_hal_adc.o(i.ADC_DMAError)
    ADC_DMAError                             0x08000711   Thumb Code    22  stm32f4xx_hal_adc.o(i.ADC_DMAError)
    i.ADC_DMAHalfConvCplt                    0x08000726   Section        0  stm32f4xx_hal_adc.o(i.ADC_DMAHalfConvCplt)
    ADC_DMAHalfConvCplt                      0x08000727   Thumb Code    10  stm32f4xx_hal_adc.o(i.ADC_DMAHalfConvCplt)
    i.ADC_Init                               0x08000730   Section        0  stm32f4xx_hal_adc.o(i.ADC_Init)
    ADC_Init                                 0x08000731   Thumb Code   292  stm32f4xx_hal_adc.o(i.ADC_Init)
    i.CFUN                                   0x0800085c   Section        0  at.o(i.CFUN)
    i.CGATT                                  0x0800089c   Section        0  at.o(i.CGATT)
    i.CGREG                                  0x080008dc   Section        0  at.o(i.CGREG)
    i.CIFSR                                  0x0800091c   Section        0  at.o(i.CIFSR)
    i.CIICR                                  0x08000944   Section        0  at.o(i.CIICR)
    i.CIPGSMLOC                              0x0800096c   Section        0  at.o(i.CIPGSMLOC)
    i.CMGD                                   0x080009bc   Section        0  at.o(i.CMGD)
    i.CMGF                                   0x08000a00   Section        0  at.o(i.CMGF)
    i.CMGR                                   0x08000a40   Section        0  at.o(i.CMGR)
    i.CMGS                                   0x08000a70   Section        0  at.o(i.CMGS)
    i.CMTE                                   0x08000aa8   Section        0  at.o(i.CMTE)
    i.COPS                                   0x08000ae8   Section        0  at.o(i.COPS)
    i.CREG                                   0x08000b28   Section        0  at.o(i.CREG)
    i.CSCS                                   0x08000b68   Section        0  at.o(i.CSCS)
    i.CSTT2                                  0x08000bb0   Section        0  at.o(i.CSTT2)
    i.Cmd_AT                                 0x08000c20   Section        0  at.o(i.Cmd_AT)
    i.Cmd_ATA                                0x08000c3c   Section        0  at.o(i.Cmd_ATA)
    i.Cmd_ATE                                0x08000c58   Section        0  at.o(i.Cmd_ATE)
    i.Cmd_ATH                                0x08000c7c   Section        0  at.o(i.Cmd_ATH)
    i.DHT11                                  0x08000c98   Section        0  dht11.o(i.DHT11)
    i.DMA2_Stream0_IRQHandler                0x08000cb8   Section        0  stm32f4xx_it.o(i.DMA2_Stream0_IRQHandler)
    i.DMA_CalcBaseAndBitshift                0x08000cc4   Section        0  stm32f4xx_hal_dma.o(i.DMA_CalcBaseAndBitshift)
    DMA_CalcBaseAndBitshift                  0x08000cc5   Thumb Code    34  stm32f4xx_hal_dma.o(i.DMA_CalcBaseAndBitshift)
    i.DMA_CheckFifoParam                     0x08000cec   Section        0  stm32f4xx_hal_dma.o(i.DMA_CheckFifoParam)
    DMA_CheckFifoParam                       0x08000ced   Thumb Code    84  stm32f4xx_hal_dma.o(i.DMA_CheckFifoParam)
    i.DMA_SetConfig                          0x08000d40   Section        0  stm32f4xx_hal_dma.o(i.DMA_SetConfig)
    DMA_SetConfig                            0x08000d41   Thumb Code    40  stm32f4xx_hal_dma.o(i.DMA_SetConfig)
    i.EXTI15_10_IRQHandler                   0x08000d68   Section        0  stm32f4xx_it.o(i.EXTI15_10_IRQHandler)
    i.EXTI2_IRQHandler                       0x08000da0   Section        0  stm32f4xx_it.o(i.EXTI2_IRQHandler)
    i.EXTI3_IRQHandler                       0x08000de8   Section        0  stm32f4xx_it.o(i.EXTI3_IRQHandler)
    i.EXTI9_5_IRQHandler                     0x08000e30   Section        0  stm32f4xx_it.o(i.EXTI9_5_IRQHandler)
    i.E_pin                                  0x08000e70   Section        0  stm_my_lcd16x2.o(i.E_pin)
    E_pin                                    0x08000e71   Thumb Code    16  stm_my_lcd16x2.o(i.E_pin)
    i.HAL_ADC_ConfigChannel                  0x08000e84   Section        0  stm32f4xx_hal_adc.o(i.HAL_ADC_ConfigChannel)
    i.HAL_ADC_ConvCpltCallback               0x08000fd0   Section        0  stm32f4xx_hal_adc.o(i.HAL_ADC_ConvCpltCallback)
    i.HAL_ADC_ConvHalfCpltCallback           0x08000fd2   Section        0  stm32f4xx_hal_adc.o(i.HAL_ADC_ConvHalfCpltCallback)
    i.HAL_ADC_ErrorCallback                  0x08000fd4   Section        0  stm32f4xx_hal_adc.o(i.HAL_ADC_ErrorCallback)
    i.HAL_ADC_Init                           0x08000fd6   Section        0  stm32f4xx_hal_adc.o(i.HAL_ADC_Init)
    i.HAL_ADC_MspInit                        0x0800102c   Section        0  stm32f4xx_hal_msp.o(i.HAL_ADC_MspInit)
    i.HAL_ADC_Start_DMA                      0x080010e8   Section        0  stm32f4xx_hal_adc.o(i.HAL_ADC_Start_DMA)
    i.HAL_DMA_Abort_IT                       0x080011e8   Section        0  stm32f4xx_hal_dma.o(i.HAL_DMA_Abort_IT)
    i.HAL_DMA_IRQHandler                     0x0800120c   Section        0  stm32f4xx_hal_dma.o(i.HAL_DMA_IRQHandler)
    i.HAL_DMA_Init                           0x080013b4   Section        0  stm32f4xx_hal_dma.o(i.HAL_DMA_Init)
    i.HAL_DMA_Start_IT                       0x08001488   Section        0  stm32f4xx_hal_dma.o(i.HAL_DMA_Start_IT)
    i.HAL_Delay                              0x08001500   Section        0  stm32f4xx_hal.o(i.HAL_Delay)
    i.HAL_GPIO_EXTI_Callback                 0x0800151c   Section        0  stm32f4xx_hal_gpio.o(i.HAL_GPIO_EXTI_Callback)
    i.HAL_GPIO_EXTI_IRQHandler               0x08001520   Section        0  stm32f4xx_hal_gpio.o(i.HAL_GPIO_EXTI_IRQHandler)
    i.HAL_GPIO_Init                          0x08001538   Section        0  stm32f4xx_hal_gpio.o(i.HAL_GPIO_Init)
    i.HAL_GPIO_ReadPin                       0x080016c0   Section        0  stm32f4xx_hal_gpio.o(i.HAL_GPIO_ReadPin)
    i.HAL_GPIO_WritePin                      0x080016ca   Section        0  stm32f4xx_hal_gpio.o(i.HAL_GPIO_WritePin)
    i.HAL_GetTick                            0x080016d4   Section        0  stm32f4xx_hal.o(i.HAL_GetTick)
    i.HAL_IncTick                            0x080016e0   Section        0  stm32f4xx_hal.o(i.HAL_IncTick)
    i.HAL_Init                               0x080016f0   Section        0  stm32f4xx_hal.o(i.HAL_Init)
    i.HAL_InitTick                           0x08001724   Section        0  stm32f4xx_hal.o(i.HAL_InitTick)
    i.HAL_MspInit                            0x0800174c   Section        0  stm32f4xx_hal_msp.o(i.HAL_MspInit)
    i.HAL_NVIC_EnableIRQ                     0x080017b4   Section        0  stm32f4xx_hal_cortex.o(i.HAL_NVIC_EnableIRQ)
    i.HAL_NVIC_SetPriority                   0x080017cc   Section        0  stm32f4xx_hal_cortex.o(i.HAL_NVIC_SetPriority)
    i.HAL_NVIC_SetPriorityGrouping           0x0800180c   Section        0  stm32f4xx_hal_cortex.o(i.HAL_NVIC_SetPriorityGrouping)
    i.HAL_PWR_EnableBkUpAccess               0x08001830   Section        0  stm32f4xx_hal_pwr.o(i.HAL_PWR_EnableBkUpAccess)
    i.HAL_RCCEx_PeriphCLKConfig              0x08001848   Section        0  stm32f4xx_hal_rcc_ex.o(i.HAL_RCCEx_PeriphCLKConfig)
    i.HAL_RCC_ClockConfig                    0x080019b0   Section        0  stm32f4xx_hal_rcc.o(i.HAL_RCC_ClockConfig)
    i.HAL_RCC_GetHCLKFreq                    0x08001b2c   Section        0  stm32f4xx_hal_rcc.o(i.HAL_RCC_GetHCLKFreq)
    i.HAL_RCC_GetPCLK1Freq                   0x08001b38   Section        0  stm32f4xx_hal_rcc.o(i.HAL_RCC_GetPCLK1Freq)
    i.HAL_RCC_GetPCLK2Freq                   0x08001b68   Section        0  stm32f4xx_hal_rcc.o(i.HAL_RCC_GetPCLK2Freq)
    i.HAL_RCC_GetSysClockFreq                0x08001b98   Section        0  stm32f4xx_hal_rcc.o(i.HAL_RCC_GetSysClockFreq)
    i.HAL_RCC_OscConfig                      0x08001c08   Section        0  stm32f4xx_hal_rcc.o(i.HAL_RCC_OscConfig)
    i.HAL_RTCEx_BKUPRead                     0x08001f1c   Section        0  stm32f4xx_hal_rtc_ex.o(i.HAL_RTCEx_BKUPRead)
    i.HAL_RTCEx_BKUPWrite                    0x08001f26   Section        0  stm32f4xx_hal_rtc_ex.o(i.HAL_RTCEx_BKUPWrite)
    i.HAL_RTC_GetDate                        0x08001f30   Section        0  stm32f4xx_hal_rtc.o(i.HAL_RTC_GetDate)
    i.HAL_RTC_GetTime                        0x08001f74   Section        0  stm32f4xx_hal_rtc.o(i.HAL_RTC_GetTime)
    i.HAL_RTC_Init                           0x08001fcc   Section        0  stm32f4xx_hal_rtc.o(i.HAL_RTC_Init)
    i.HAL_RTC_MspInit                        0x08002068   Section        0  stm32f4xx_hal_msp.o(i.HAL_RTC_MspInit)
    i.HAL_RTC_SetDate                        0x08002080   Section        0  stm32f4xx_hal_rtc.o(i.HAL_RTC_SetDate)
    i.HAL_RTC_SetTime                        0x08002150   Section        0  stm32f4xx_hal_rtc.o(i.HAL_RTC_SetTime)
    i.HAL_RTC_WaitForSynchro                 0x08002240   Section        0  stm32f4xx_hal_rtc.o(i.HAL_RTC_WaitForSynchro)
    i.HAL_SYSTICK_CLKSourceConfig            0x08002276   Section        0  stm32f4xx_hal_cortex.o(i.HAL_SYSTICK_CLKSourceConfig)
    i.HAL_SYSTICK_Callback                   0x0800228e   Section        0  stm32f4xx_hal_cortex.o(i.HAL_SYSTICK_Callback)
    i.HAL_SYSTICK_Config                     0x08002290   Section        0  stm32f4xx_hal_cortex.o(i.HAL_SYSTICK_Config)
    i.HAL_SYSTICK_IRQHandler                 0x080022b8   Section        0  stm32f4xx_hal_cortex.o(i.HAL_SYSTICK_IRQHandler)
    i.HAL_TIMEx_BreakCallback                0x080022c0   Section        0  stm32f4xx_hal_tim_ex.o(i.HAL_TIMEx_BreakCallback)
    i.HAL_TIMEx_CommutationCallback          0x080022c2   Section        0  stm32f4xx_hal_tim_ex.o(i.HAL_TIMEx_CommutationCallback)
    i.HAL_TIMEx_MasterConfigSynchronization  0x080022c4   Section        0  stm32f4xx_hal_tim_ex.o(i.HAL_TIMEx_MasterConfigSynchronization)
    i.HAL_TIM_Base_Init                      0x08002314   Section        0  stm32f4xx_hal_tim.o(i.HAL_TIM_Base_Init)
    i.HAL_TIM_Base_MspInit                   0x0800234c   Section        0  stm32f4xx_hal_msp.o(i.HAL_TIM_Base_MspInit)
    i.HAL_TIM_Base_Start                     0x0800239c   Section        0  stm32f4xx_hal_tim.o(i.HAL_TIM_Base_Start)
    i.HAL_TIM_Base_Start_IT                  0x080023b6   Section        0  stm32f4xx_hal_tim.o(i.HAL_TIM_Base_Start_IT)
    i.HAL_TIM_Base_Stop_IT                   0x080023ce   Section        0  stm32f4xx_hal_tim.o(i.HAL_TIM_Base_Stop_IT)
    i.HAL_TIM_ConfigClockSource              0x080023f8   Section        0  stm32f4xx_hal_tim.o(i.HAL_TIM_ConfigClockSource)
    i.HAL_TIM_IC_CaptureCallback             0x080024ea   Section        0  stm32f4xx_hal_tim.o(i.HAL_TIM_IC_CaptureCallback)
    i.HAL_TIM_IRQHandler                     0x080024ec   Section        0  stm32f4xx_hal_tim.o(i.HAL_TIM_IRQHandler)
    i.HAL_TIM_OC_DelayElapsedCallback        0x08002652   Section        0  stm32f4xx_hal_tim.o(i.HAL_TIM_OC_DelayElapsedCallback)
    i.HAL_TIM_PWM_PulseFinishedCallback      0x08002654   Section        0  stm32f4xx_hal_tim.o(i.HAL_TIM_PWM_PulseFinishedCallback)
    i.HAL_TIM_PeriodElapsedCallback          0x08002656   Section        0  stm32f4xx_hal_tim.o(i.HAL_TIM_PeriodElapsedCallback)
    i.HAL_TIM_TriggerCallback                0x08002658   Section        0  stm32f4xx_hal_tim.o(i.HAL_TIM_TriggerCallback)
    i.HAL_UART_ErrorCallback                 0x0800265a   Section        0  stm32f4xx_hal_uart.o(i.HAL_UART_ErrorCallback)
    i.HAL_UART_IRQHandler                    0x0800265c   Section        0  stm32f4xx_hal_uart.o(i.HAL_UART_IRQHandler)
    i.HAL_UART_Init                          0x0800276c   Section        0  stm32f4xx_hal_uart.o(i.HAL_UART_Init)
    i.HAL_UART_MspInit                       0x080027d0   Section        0  stm32f4xx_hal_msp.o(i.HAL_UART_MspInit)
    i.HAL_UART_Receive_IT                    0x0800282c   Section        0  stm32f4xx_hal_uart.o(i.HAL_UART_Receive_IT)
    i.HAL_UART_RxCpltCallback                0x08002874   Section        0  fibocom.o(i.HAL_UART_RxCpltCallback)
    i.HAL_UART_Transmit_IT                   0x08002990   Section        0  stm32f4xx_hal_uart.o(i.HAL_UART_Transmit_IT)
    i.HAL_UART_TxCpltCallback                0x080029ce   Section        0  stm32f4xx_hal_uart.o(i.HAL_UART_TxCpltCallback)
    i.IPR                                    0x080029d0   Section        0  at.o(i.IPR)
    i.Inicializacion                         0x08002a0c   Section        0  funcioninicializacion.o(i.Inicializacion)
    i.LCD_TwoLines                           0x08002d34   Section        0  stm_my_lcd16x2.o(i.LCD_TwoLines)
    i.LCD_begin4BIT                          0x08002d54   Section        0  stm_my_lcd16x2.o(i.LCD_begin4BIT)
    i.LCD_clear                              0x08002dd8   Section        0  stm_my_lcd16x2.o(i.LCD_clear)
    i.LCD_noCursor                           0x08002df0   Section        0  stm_my_lcd16x2.o(i.LCD_noCursor)
    i.LCD_setCursor                          0x08002e10   Section        0  stm_my_lcd16x2.o(i.LCD_setCursor)
    i.LCD_writeChar                          0x08002e38   Section        0  stm_my_lcd16x2.o(i.LCD_writeChar)
    i.MSJ                                    0x08002e4c   Section        0  at.o(i.MSJ)
    i.MX_ADC1_Init                           0x08002e60   Section        0  main.o(i.MX_ADC1_Init)
    MX_ADC1_Init                             0x08002e61   Thumb Code   168  main.o(i.MX_ADC1_Init)
    i.MX_GPIO_Init                           0x08002f14   Section        0  main.o(i.MX_GPIO_Init)
    MX_GPIO_Init                             0x08002f15   Thumb Code   304  main.o(i.MX_GPIO_Init)
    i.MX_RTC_Init                            0x08003058   Section        0  main.o(i.MX_RTC_Init)
    i.MX_TIM2_Init                           0x08003100   Section        0  main.o(i.MX_TIM2_Init)
    MX_TIM2_Init                             0x08003101   Thumb Code    78  main.o(i.MX_TIM2_Init)
    i.MX_TIM5_Init                           0x08003154   Section        0  main.o(i.MX_TIM5_Init)
    MX_TIM5_Init                             0x08003155   Thumb Code    72  main.o(i.MX_TIM5_Init)
    i.Module_Write_str                       0x080031a4   Section        0  fibocom.o(i.Module_Write_str)
    i.NVIC_SetPriority                       0x080031dc   Section        0  stm32f4xx_hal_cortex.o(i.NVIC_SetPriority)
    NVIC_SetPriority                         0x080031dd   Thumb Code    32  stm32f4xx_hal_cortex.o(i.NVIC_SetPriority)
    i.OneWire_Init                           0x080031fc   Section        0  main.o(i.OneWire_Init)
    i.POSTHTTP                               0x08003204   Section        0  posthttp.o(i.POSTHTTP)
    i.PendSV_Handler                         0x08003448   Section        0  stm32f4xx_it.o(i.PendSV_Handler)
    i.RCC_IRQHandler                         0x0800344a   Section        0  stm32f4xx_it.o(i.RCC_IRQHandler)
    i.RS_pin                                 0x0800344c   Section        0  stm_my_lcd16x2.o(i.RS_pin)
    RS_pin                                   0x0800344d   Thumb Code    16  stm_my_lcd16x2.o(i.RS_pin)
    i.RTC_Bcd2ToByte                         0x08003460   Section        0  stm32f4xx_hal_rtc.o(i.RTC_Bcd2ToByte)
    i.RTC_ByteToBcd2                         0x08003472   Section        0  stm32f4xx_hal_rtc.o(i.RTC_ByteToBcd2)
    i.RTC_EnterInitMode                      0x08003488   Section        0  stm32f4xx_hal_rtc.o(i.RTC_EnterInitMode)
    i.ReportTemperature                      0x080034c4   Section        0  main.o(i.ReportTemperature)
    i.SAPBR                                  0x080035ac   Section        0  at.o(i.SAPBR)
    i.SAPBRCONFG                             0x080035f8   Section        0  at.o(i.SAPBRCONFG)
    i.SMSquery                               0x08003674   Section        0  responsesms.o(i.SMSquery)
    i.SVC_Handler                            0x08003de0   Section        0  stm32f4xx_it.o(i.SVC_Handler)
    i.Send                                   0x08003de4   Section        0  sendmessage.o(i.Send)
    i.SendByte                               0x08003e14   Section        0  main.o(i.SendByte)
    SendByte                                 0x08003e15   Thumb Code    88  main.o(i.SendByte)
    i.SendInitialization                     0x08003e70   Section        0  main.o(i.SendInitialization)
    SendInitialization                       0x08003e71   Thumb Code    78  main.o(i.SendInitialization)
    i.SysTick_Handler                        0x08003ec4   Section        0  stm32f4xx_it.o(i.SysTick_Handler)
    i.SystemClock_Config                     0x08003ed4   Section        0  main.o(i.SystemClock_Config)
    i.SystemInit                             0x08003f8c   Section        0  system_stm32f4xx.o(i.SystemInit)
    i.TIM2_IRQHandler                        0x08003fe0   Section        0  stm32f4xx_it.o(i.TIM2_IRQHandler)
    i.TIM_Base_SetConfig                     0x08004050   Section        0  stm32f4xx_hal_tim.o(i.TIM_Base_SetConfig)
    i.TIM_ETR_SetConfig                      0x080040e0   Section        0  stm32f4xx_hal_tim.o(i.TIM_ETR_SetConfig)
    TIM_ETR_SetConfig                        0x080040e1   Thumb Code    20  stm32f4xx_hal_tim.o(i.TIM_ETR_SetConfig)
    i.TIM_ITRx_SetConfig                     0x080040f4   Section        0  stm32f4xx_hal_tim.o(i.TIM_ITRx_SetConfig)
    TIM_ITRx_SetConfig                       0x080040f5   Thumb Code    16  stm32f4xx_hal_tim.o(i.TIM_ITRx_SetConfig)
    i.TIM_TI1_ConfigInputStage               0x08004104   Section        0  stm32f4xx_hal_tim.o(i.TIM_TI1_ConfigInputStage)
    TIM_TI1_ConfigInputStage                 0x08004105   Thumb Code    34  stm32f4xx_hal_tim.o(i.TIM_TI1_ConfigInputStage)
    i.TIM_TI2_ConfigInputStage               0x08004126   Section        0  stm32f4xx_hal_tim.o(i.TIM_TI2_ConfigInputStage)
    TIM_TI2_ConfigInputStage                 0x08004127   Thumb Code    36  stm32f4xx_hal_tim.o(i.TIM_TI2_ConfigInputStage)
    i.UART_DMAAbortOnError                   0x0800414a   Section        0  stm32f4xx_hal_uart.o(i.UART_DMAAbortOnError)
    UART_DMAAbortOnError                     0x0800414b   Thumb Code    16  stm32f4xx_hal_uart.o(i.UART_DMAAbortOnError)
    i.UART_EndRxTransfer                     0x0800415a   Section        0  stm32f4xx_hal_uart.o(i.UART_EndRxTransfer)
    UART_EndRxTransfer                       0x0800415b   Thumb Code    28  stm32f4xx_hal_uart.o(i.UART_EndRxTransfer)
    i.UART_Receive_IT                        0x08004176   Section        0  stm32f4xx_hal_uart.o(i.UART_Receive_IT)
    UART_Receive_IT                          0x08004177   Thumb Code   140  stm32f4xx_hal_uart.o(i.UART_Receive_IT)
    i.UART_SetConfig                         0x08004204   Section        0  stm32f4xx_hal_uart.o(i.UART_SetConfig)
    UART_SetConfig                           0x08004205   Thumb Code   676  stm32f4xx_hal_uart.o(i.UART_SetConfig)
    i.UART_Transmit_IT                       0x080044b0   Section        0  stm32f4xx_hal_uart.o(i.UART_Transmit_IT)
    UART_Transmit_IT                         0x080044b1   Thumb Code    98  stm32f4xx_hal_uart.o(i.UART_Transmit_IT)
    i.USART6_IRQHandler                      0x08004514   Section        0  stm32f4xx_it.o(i.USART6_IRQHandler)
    i._Error_Handler                         0x08004520   Section        0  main.o(i._Error_Handler)
    i.__0snprintf$6                          0x08004524   Section        0  printf6.o(i.__0snprintf$6)
    i.__0sprintf$6                           0x08004554   Section        0  printf6.o(i.__0sprintf$6)
    i.__scatterload_copy                     0x0800457c   Section       14  handlers.o(i.__scatterload_copy)
    i.__scatterload_null                     0x0800458a   Section        2  handlers.o(i.__scatterload_null)
    i.__scatterload_zeroinit                 0x0800458c   Section       14  handlers.o(i.__scatterload_zeroinit)
    i._printf_core                           0x0800459c   Section        0  printf6.o(i._printf_core)
    _printf_core                             0x0800459d   Thumb Code   748  printf6.o(i._printf_core)
    i._printf_post_padding                   0x0800488c   Section        0  printf6.o(i._printf_post_padding)
    _printf_post_padding                     0x0800488d   Thumb Code    36  printf6.o(i._printf_post_padding)
    i._printf_pre_padding                    0x080048b0   Section        0  printf6.o(i._printf_pre_padding)
    _printf_pre_padding                      0x080048b1   Thumb Code    46  printf6.o(i._printf_pre_padding)
    i._snputc                                0x080048de   Section        0  printf6.o(i._snputc)
    _snputc                                  0x080048df   Thumb Code    22  printf6.o(i._snputc)
    i._sputc                                 0x080048f4   Section        0  printf6.o(i._sputc)
    _sputc                                   0x080048f5   Thumb Code    10  printf6.o(i._sputc)
    i.controlAmbiental                       0x08004900   Section        0  controlambiental.o(i.controlAmbiental)
    i.controlHumAmb                          0x08004a24   Section        0  humamb.o(i.controlHumAmb)
    i.controlHumComp                         0x08004b14   Section        0  humcomp.o(i.controlHumComp)
    i.controlTempAmb                         0x08004bd4   Section        0  tempamb.o(i.controlTempAmb)
    i.controlTempComp                        0x08004d3c   Section        0  tempcomp.o(i.controlTempComp)
    i.crc8                                   0x08004e04   Section        0  main.o(i.crc8)
    i.cultivation                            0x08004e34   Section        0  ctrlfase.o(i.cultivation)
    i.dateRTC                                0x08004fdc   Section        0  main.o(i.dateRTC)
    i.delay_us                               0x08005084   Section        0  main.o(i.delay_us)
    i.digitalRead                            0x0800509c   Section        0  dht11.o(i.digitalRead)
    i.digitalWrite                           0x080050b4   Section        0  dht11.o(i.digitalWrite)
    i.disp_enviar                            0x080050c8   Section        0  main.o(i.disp_enviar)
    i.fase                                   0x080050fe   Section        0  fase.o(i.fase)
    i.fibocom_bsp_init                       0x08005114   Section        0  fibocom.o(i.fibocom_bsp_init)
    i.getHumTemp                             0x0800512c   Section        0  humtemp.o(i.getHumTemp)
    i.getLight                               0x08005390   Section        0  light.o(i.getLight)
    i.getSoilHumidity                        0x080053b4   Section        0  soilhumidity.o(i.getSoilHumidity)
    i.initGPRS                               0x08005460   Section        0  confggprs.o(i.initGPRS)
    i.initGSM                                0x08005604   Section        0  confggsm.o(i.initGSM)
    i.main                                   0x080056f0   Section        0  main.o(i.main)
    i.micros                                 0x080068ec   Section        0  main.o(i.micros)
    i.mnu_HumTemp_periodica                  0x080068f8   Section        0  menu.o(i.mnu_HumTemp_periodica)
    i.mnu_SoilHumidity_periodica             0x080069e8   Section        0  menu.o(i.mnu_SoilHumidity_periodica)
    i.mnu_cambio_seleccion                   0x08006ac4   Section        0  menu.o(i.mnu_cambio_seleccion)
    i.mnu_confirmar_clave                    0x08006afc   Section        0  menu.o(i.mnu_confirmar_clave)
    i.mnu_confirmar_guardar_flag             0x08006b40   Section        0  menu.o(i.mnu_confirmar_guardar_flag)
    i.mnu_dibujar_elemento_menu              0x08006b84   Section        0  menu.o(i.mnu_dibujar_elemento_menu)
    i.mnu_dibujar_flag                       0x08006cac   Section        0  menu.o(i.mnu_dibujar_flag)
    i.mnu_dibujar_numero_clave               0x08006d48   Section        0  menu.o(i.mnu_dibujar_numero_clave)
    i.mnu_dummy_function                     0x08006df8   Section        0  menu.o(i.mnu_dummy_function)
    i.mnu_dummy_function_ger                 0x08006dfc   Section        0  menu.o(i.mnu_dummy_function_ger)
    i.mnu_dummy_function_hum                 0x08006e28   Section        0  menu.o(i.mnu_dummy_function_hum)
    i.mnu_dummy_function_indfruct            0x08006e64   Section        0  menu.o(i.mnu_dummy_function_indfruct)
    i.mnu_dummy_function_light               0x08006e90   Section        0  menu.o(i.mnu_dummy_function_light)
    i.mnu_dummy_function_no                  0x08006edc   Section        0  menu.o(i.mnu_dummy_function_no)
    i.mnu_dummy_function_pfruct              0x08006f08   Section        0  menu.o(i.mnu_dummy_function_pfruct)
    i.mnu_dummy_function_plfruct             0x08006f34   Section        0  menu.o(i.mnu_dummy_function_plfruct)
    i.mnu_dummy_function_restfruct           0x08006f60   Section        0  menu.o(i.mnu_dummy_function_restfruct)
    i.mnu_dummy_function_tank                0x08006f8c   Section        0  menu.o(i.mnu_dummy_function_tank)
    i.mnu_dummy_function_temp                0x08006fdc   Section        0  menu.o(i.mnu_dummy_function_temp)
    i.mnu_efectos_clave                      0x08007014   Section        0  menu.o(i.mnu_efectos_clave)
    i.mnu_efectos_fijar_flag                 0x08007028   Section        0  menu.o(i.mnu_efectos_fijar_flag)
    i.mnu_efectos_mostrar_msj                0x0800703c   Section        0  menu.o(i.mnu_efectos_mostrar_msj)
    i.mnu_ejecutar_funcion                   0x08007058   Section        0  menu.o(i.mnu_ejecutar_funcion)
    i.mnu_ejecutar_funcion_periodica         0x08007068   Section        0  menu.o(i.mnu_ejecutar_funcion_periodica)
    i.mnu_eventos_clave                      0x08007078   Section        0  menu.o(i.mnu_eventos_clave)
    i.mnu_eventos_confirmar_clave            0x0800712c   Section        0  menu.o(i.mnu_eventos_confirmar_clave)
    i.mnu_eventos_confirmar_guardar_flag     0x080071c4   Section        0  menu.o(i.mnu_eventos_confirmar_guardar_flag)
    i.mnu_eventos_fijar_flag                 0x08007214   Section        0  menu.o(i.mnu_eventos_fijar_flag)
    i.mnu_eventos_mostrar_msj                0x08007294   Section        0  menu.o(i.mnu_eventos_mostrar_msj)
    i.mnu_eventos_submenu                    0x080072a8   Section        0  menu.o(i.mnu_eventos_submenu)
    i.mnu_fijar_clave                        0x0800730c   Section        0  menu.o(i.mnu_fijar_clave)
    i.mnu_fijar_clave_init                   0x080073ac   Section        0  menu.o(i.mnu_fijar_clave_init)
    i.mnu_fijar_flag                         0x080073c0   Section        0  menu.o(i.mnu_fijar_flag)
    i.mnu_guardar_flag                       0x08007414   Section        0  menu.o(i.mnu_guardar_flag)
    i.mnu_levelTank_periodica                0x08007438   Section        0  menu.o(i.mnu_levelTank_periodica)
    i.mnu_light_periodica                    0x080074c8   Section        0  menu.o(i.mnu_light_periodica)
    i.mnu_mostrar_menu                       0x08007558   Section        0  menu.o(i.mnu_mostrar_menu)
    i.mnu_mostrar_menu_anterior              0x08007598   Section        0  menu.o(i.mnu_mostrar_menu_anterior)
    i.mnu_mostrar_menu_pass                  0x080075a8   Section        0  menu.o(i.mnu_mostrar_menu_pass)
    mnu_mostrar_menu_pass                    0x080075a9   Thumb Code    56  menu.o(i.mnu_mostrar_menu_pass)
    i.mnu_mostrar_msj                        0x08007604   Section        0  menu.o(i.mnu_mostrar_msj)
    i.mnu_procesar_clave                     0x08007638   Section        0  menu.o(i.mnu_procesar_clave)
    i.mnu_salir                              0x080076ec   Section        0  menu.o(i.mnu_salir)
    i.pinMode                                0x08007704   Section        0  dht11.o(i.pinMode)
    i.read                                   0x0800772c   Section        0  dht11.o(i.read)
    i.readByte                               0x080077c8   Section        0  dht11.o(i.readByte)
    i.setDataLength                          0x0800780c   Section        0  stm_my_lcd16x2.o(i.setDataLength)
    setDataLength                            0x0800780d   Thumb Code    36  stm_my_lcd16x2.o(i.setDataLength)
    i.switchMode                             0x08007834   Section        0  stm_my_lcd16x2.o(i.switchMode)
    switchMode                               0x08007835   Thumb Code    74  stm_my_lcd16x2.o(i.switchMode)
    i.tempSensor                             0x08007880   Section        0  tempmcu.o(i.tempSensor)
    i.timeRTC                                0x08007974   Section        0  main.o(i.timeRTC)
    i.waitFor                                0x080079f4   Section        0  dht11.o(i.waitFor)
    i.waitForT                               0x08007a0c   Section        0  dht11.o(i.waitForT)
    i.writeCommand                           0x08007a48   Section        0  stm_my_lcd16x2.o(i.writeCommand)
    writeCommand                             0x08007a49   Thumb Code   492  stm_my_lcd16x2.o(i.writeCommand)
    .constdata                               0x08007c38   Section        8  stm32f4xx_hal_dma.o(.constdata)
    flagBitshiftOffset                       0x08007c38   Data           8  stm32f4xx_hal_dma.o(.constdata)
    .constdata                               0x08007c40   Section       16  system_stm32f4xx.o(.constdata)
    .constdata                               0x08007c50   Section        8  system_stm32f4xx.o(.constdata)
    .conststring                             0x08007c58   Section       57  menu.o(.conststring)
    .conststring                             0x08007c94   Section       56  menu.o(.conststring)
    .conststring                             0x08007ccc   Section       73  menu.o(.conststring)
    .conststring                             0x08007d18   Section       44  menu.o(.conststring)
    .conststring                             0x08007d44   Section       93  menu.o(.conststring)
    .data                                    0x20000000   Section        4  stm32f4xx_hal.o(.data)
    .data                                    0x20000004   Section        8  dht11.o(.data)
    .data                                    0x2000000c   Section       40  stm_my_lcd16x2.o(.data)
    DisplayControl                           0x2000000c   Data           1  stm_my_lcd16x2.o(.data)
    FunctionSet                              0x2000000d   Data           1  stm_my_lcd16x2.o(.data)
    Mode_8BIT                                0x2000000e   Data           1  stm_my_lcd16x2.o(.data)
    PIN_RS                                   0x20000010   Data           2  stm_my_lcd16x2.o(.data)
    PIN_E                                    0x20000012   Data           2  stm_my_lcd16x2.o(.data)
    D0_PIN                                   0x20000014   Data           2  stm_my_lcd16x2.o(.data)
    D1_PIN                                   0x20000016   Data           2  stm_my_lcd16x2.o(.data)
    D2_PIN                                   0x20000018   Data           2  stm_my_lcd16x2.o(.data)
    D3_PIN                                   0x2000001a   Data           2  stm_my_lcd16x2.o(.data)
    D4_PIN                                   0x2000001c   Data           2  stm_my_lcd16x2.o(.data)
    D5_PIN                                   0x2000001e   Data           2  stm_my_lcd16x2.o(.data)
    D6_PIN                                   0x20000020   Data           2  stm_my_lcd16x2.o(.data)
    D7_PIN                                   0x20000022   Data           2  stm_my_lcd16x2.o(.data)
    FreqClockSys                             0x20000024   Data           4  stm_my_lcd16x2.o(.data)
    PORT_RS_and_E                            0x20000028   Data           4  stm_my_lcd16x2.o(.data)
    PORT_LSB                                 0x2000002c   Data           4  stm_my_lcd16x2.o(.data)
    PORT_MSB                                 0x20000030   Data           4  stm_my_lcd16x2.o(.data)
    .data                                    0x20000034   Section      180  menu.o(.data)
    mostrar                                  0x20000035   Data           1  menu.o(.data)
    mostrar                                  0x20000036   Data           1  menu.o(.data)
    StoredPaswordAux                         0x200000a8   Data          64  menu.o(.data)
    .data                                    0x200000e8   Section       60  menu.o(.data)
    .data                                    0x20000124   Section       84  menu.o(.data)
    .data                                    0x20000178   Section       72  menu.o(.data)
    .data                                    0x200001c0   Section       96  menu.o(.data)
    .data                                    0x20000220   Section       20  humamb.o(.data)
    .data                                    0x20000234   Section       20  humcomp.o(.data)
    .data                                    0x20000248   Section       20  tempamb.o(.data)
    .data                                    0x2000025c   Section       20  tempcomp.o(.data)
    .data                                    0x20000270   Section       11  at.o(.data)
    at_cmd_storage_used                      0x20000270   Data           1  at.o(.data)
    Std                                      0x20000271   Data           1  at.o(.data)
    HeadRx                                   0x20000272   Data           2  at.o(.data)
    .data                                    0x2000027b   Section        1  fibocom.o(.data)
    Data                                     0x2000027b   Data           1  fibocom.o(.data)
    .data                                    0x2000027c   Section        2  funcioninicializacion.o(.data)
    .data                                    0x2000027e   Section        2  confggsm.o(.data)
    .data                                    0x20000280   Section        2  confggprs.o(.data)
    .data                                    0x20000282   Section        1  posthttp.o(.data)
    .data                                    0x20000284   Section        4  system_stm32f4xx.o(.data)
    .data                                    0x20000288   Section      716  main.o(.data)
    .data                                    0x20000554   Section        4  main.o(.data)
    .data                                    0x20000558   Section        4  main.o(.data)
    .data                                    0x2000055c   Section        1  main.o(.data)
    .data                                    0x2000055d   Section        1  main.o(.data)
    .data                                    0x2000055e   Section        1  main.o(.data)
    .data                                    0x20000560   Section        2  main.o(.data)
    .data                                    0x20000562   Section       14  main.o(.data)
    .data                                    0x20000570   Section       14  main.o(.data)
    .data                                    0x2000057e   Section       53  main.o(.data)
    .data                                    0x200005b3   Section       45  main.o(.data)
    .data                                    0x200005e0   Section       34  main.o(.data)
    .data                                    0x20000602   Section       38  main.o(.data)
    .data                                    0x20000628   Section       38  main.o(.data)
    .data                                    0x2000064e   Section       34  main.o(.data)
    .data                                    0x20000670   Section       78  main.o(.data)
    .data                                    0x200006be   Section        1  main.o(.data)
    .data                                    0x200006bf   Section        1  main.o(.data)
    .data                                    0x200006c0   Section        1  main.o(.data)
    .data                                    0x200006c1   Section        1  main.o(.data)
    .data                                    0x200006c2   Section        1  main.o(.data)
    .data                                    0x200006c3   Section        1  main.o(.data)
    .data                                    0x200006c4   Section        1  main.o(.data)
    .data                                    0x200006c5   Section        1  main.o(.data)
    .data                                    0x200006c6   Section        1  main.o(.data)
    .data                                    0x200006c7   Section        1  main.o(.data)
    .data                                    0x200006c8   Section        1  main.o(.data)
    .data                                    0x200006c9   Section        1  main.o(.data)
    .data                                    0x200006ca   Section        2  main.o(.data)
    .bss                                     0x200006cc   Section      128  menu.o(.bss)
    .bss                                     0x2000074c   Section     2608  main.o(.bss)
    .bss                                     0x2000117c   Section       96  main.o(.bss)
    STACK                                    0x200011e0   Section     1024  startup_stm32f401xe.o(STACK)

    Global Symbols

    Symbol Name                              Value     Ov Type        Size  Object(Section)

    BuildAttributes$$THM_ISAv4$E$P$D$K$B$S$7EM$VFPi3$EXTD16$VFPS$VFMA$PE$A:L22UL41UL21$X:L11$S22US41US21$IEEE1$IW$USESV6$~STKCKD$USESV7$~SHL$OTIME$ROPI$IEEEX$EBA8$MICROLIB$REQ8$PRES8$EABIv2 0x00000000   Number         0  anon$$obj.o ABSOLUTE
    __ARM_use_no_argv                        0x00000000   Number         0  main.o ABSOLUTE
    _printf_a                                0x00000000   Number         0  stubs.o ABSOLUTE
    _printf_c                                0x00000000   Number         0  stubs.o ABSOLUTE
    _printf_charcount                        0x00000000   Number         0  stubs.o ABSOLUTE
    _printf_d                                0x00000000   Number         0  stubs.o ABSOLUTE
    _printf_e                                0x00000000   Number         0  stubs.o ABSOLUTE
    _printf_f                                0x00000000   Number         0  stubs.o ABSOLUTE
    _printf_flags                            0x00000000   Number         0  stubs.o ABSOLUTE
    _printf_fp_dec                           0x00000000   Number         0  stubs.o ABSOLUTE
    _printf_fp_hex                           0x00000000   Number         0  stubs.o ABSOLUTE
    _printf_g                                0x00000000   Number         0  stubs.o ABSOLUTE
    _printf_i                                0x00000000   Number         0  stubs.o ABSOLUTE
    _printf_int_dec                          0x00000000   Number         0  stubs.o ABSOLUTE
    _printf_l                                0x00000000   Number         0  stubs.o ABSOLUTE
    _printf_lc                               0x00000000   Number         0  stubs.o ABSOLUTE
    _printf_ll                               0x00000000   Number         0  stubs.o ABSOLUTE
    _printf_lld                              0x00000000   Number         0  stubs.o ABSOLUTE
    _printf_lli                              0x00000000   Number         0  stubs.o ABSOLUTE
    _printf_llo                              0x00000000   Number         0  stubs.o ABSOLUTE
    _printf_llu                              0x00000000   Number         0  stubs.o ABSOLUTE
    _printf_llx                              0x00000000   Number         0  stubs.o ABSOLUTE
    _printf_longlong_dec                     0x00000000   Number         0  stubs.o ABSOLUTE
    _printf_longlong_hex                     0x00000000   Number         0  stubs.o ABSOLUTE
    _printf_longlong_oct                     0x00000000   Number         0  stubs.o ABSOLUTE
    _printf_ls                               0x00000000   Number         0  stubs.o ABSOLUTE
    _printf_mbtowc                           0x00000000   Number         0  stubs.o ABSOLUTE
    _printf_n                                0x00000000   Number         0  stubs.o ABSOLUTE
    _printf_o                                0x00000000   Number         0  stubs.o ABSOLUTE
    _printf_p                                0x00000000   Number         0  stubs.o ABSOLUTE
    _printf_percent                          0x00000000   Number         0  stubs.o ABSOLUTE
    _printf_pre_padding                      0x00000000   Number         0  stubs.o ABSOLUTE
    _printf_return_value                     0x00000000   Number         0  stubs.o ABSOLUTE
    _printf_s                                0x00000000   Number         0  stubs.o ABSOLUTE
    _printf_sizespec                         0x00000000   Number         0  stubs.o ABSOLUTE
    _printf_str                              0x00000000   Number         0  stubs.o ABSOLUTE
    _printf_truncate_signed                  0x00000000   Number         0  stubs.o ABSOLUTE
    _printf_truncate_unsigned                0x00000000   Number         0  stubs.o ABSOLUTE
    _printf_u                                0x00000000   Number         0  stubs.o ABSOLUTE
    _printf_wc                               0x00000000   Number         0  stubs.o ABSOLUTE
    _printf_wctomb                           0x00000000   Number         0  stubs.o ABSOLUTE
    _printf_widthprec                        0x00000000   Number         0  stubs.o ABSOLUTE
    _printf_x                                0x00000000   Number         0  stubs.o ABSOLUTE
    __cpp_initialize__aeabi_                  - Undefined Weak Reference
    __cxa_finalize                            - Undefined Weak Reference
    _clock_init                               - Undefined Weak Reference
    _microlib_exit                            - Undefined Weak Reference
    __Vectors_Size                           0x00000194   Number         0  startup_stm32f401xe.o ABSOLUTE
    __Vectors                                0x08000000   Data           4  startup_stm32f401xe.o(RESET)
    __Vectors_End                            0x08000194   Data           0  startup_stm32f401xe.o(RESET)
    __main                                   0x08000195   Thumb Code     0  entry.o(.ARM.Collect$$$$00000000)
    _main_stk                                0x08000195   Thumb Code     0  entry2.o(.ARM.Collect$$$$00000001)
    _main_scatterload                        0x08000199   Thumb Code     0  entry5.o(.ARM.Collect$$$$00000004)
    __main_after_scatterload                 0x0800019d   Thumb Code     0  entry5.o(.ARM.Collect$$$$00000004)
    _main_clock                              0x0800019d   Thumb Code     0  entry7b.o(.ARM.Collect$$$$00000008)
    _main_cpp_init                           0x0800019d   Thumb Code     0  entry8b.o(.ARM.Collect$$$$0000000A)
    _main_init                               0x0800019d   Thumb Code     0  entry9a.o(.ARM.Collect$$$$0000000B)
    __rt_final_cpp                           0x080001a5   Thumb Code     0  entry10a.o(.ARM.Collect$$$$0000000D)
    __rt_final_exit                          0x080001a5   Thumb Code     0  entry11a.o(.ARM.Collect$$$$0000000F)
    Reset_Handler                            0x080001a9   Thumb Code     8  startup_stm32f401xe.o(.text)
    NMI_Handler                              0x080001b1   Thumb Code     2  startup_stm32f401xe.o(.text)
    HardFault_Handler                        0x080001b3   Thumb Code     2  startup_stm32f401xe.o(.text)
    MemManage_Handler                        0x080001b5   Thumb Code     2  startup_stm32f401xe.o(.text)
    BusFault_Handler                         0x080001b7   Thumb Code     2  startup_stm32f401xe.o(.text)
    UsageFault_Handler                       0x080001b9   Thumb Code     2  startup_stm32f401xe.o(.text)
    DebugMon_Handler                         0x080001bd   Thumb Code     2  startup_stm32f401xe.o(.text)
    ADC_IRQHandler                           0x080001c3   Thumb Code     0  startup_stm32f401xe.o(.text)
    DMA1_Stream0_IRQHandler                  0x080001c3   Thumb Code     0  startup_stm32f401xe.o(.text)
    DMA1_Stream1_IRQHandler                  0x080001c3   Thumb Code     0  startup_stm32f401xe.o(.text)
    DMA1_Stream2_IRQHandler                  0x080001c3   Thumb Code     0  startup_stm32f401xe.o(.text)
    DMA1_Stream3_IRQHandler                  0x080001c3   Thumb Code     0  startup_stm32f401xe.o(.text)
    DMA1_Stream4_IRQHandler                  0x080001c3   Thumb Code     0  startup_stm32f401xe.o(.text)
    DMA1_Stream5_IRQHandler                  0x080001c3   Thumb Code     0  startup_stm32f401xe.o(.text)
    DMA1_Stream6_IRQHandler                  0x080001c3   Thumb Code     0  startup_stm32f401xe.o(.text)
    DMA1_Stream7_IRQHandler                  0x080001c3   Thumb Code     0  startup_stm32f401xe.o(.text)
    DMA2_Stream1_IRQHandler                  0x080001c3   Thumb Code     0  startup_stm32f401xe.o(.text)
    DMA2_Stream2_IRQHandler                  0x080001c3   Thumb Code     0  startup_stm32f401xe.o(.text)
    DMA2_Stream3_IRQHandler                  0x080001c3   Thumb Code     0  startup_stm32f401xe.o(.text)
    DMA2_Stream4_IRQHandler                  0x080001c3   Thumb Code     0  startup_stm32f401xe.o(.text)
    DMA2_Stream5_IRQHandler                  0x080001c3   Thumb Code     0  startup_stm32f401xe.o(.text)
    DMA2_Stream6_IRQHandler                  0x080001c3   Thumb Code     0  startup_stm32f401xe.o(.text)
    DMA2_Stream7_IRQHandler                  0x080001c3   Thumb Code     0  startup_stm32f401xe.o(.text)
    EXTI0_IRQHandler                         0x080001c3   Thumb Code     0  startup_stm32f401xe.o(.text)
    EXTI1_IRQHandler                         0x080001c3   Thumb Code     0  startup_stm32f401xe.o(.text)
    EXTI4_IRQHandler                         0x080001c3   Thumb Code     0  startup_stm32f401xe.o(.text)
    FLASH_IRQHandler                         0x080001c3   Thumb Code     0  startup_stm32f401xe.o(.text)
    FPU_IRQHandler                           0x080001c3   Thumb Code     0  startup_stm32f401xe.o(.text)
    I2C1_ER_IRQHandler                       0x080001c3   Thumb Code     0  startup_stm32f401xe.o(.text)
    I2C1_EV_IRQHandler                       0x080001c3   Thumb Code     0  startup_stm32f401xe.o(.text)
    I2C2_ER_IRQHandler                       0x080001c3   Thumb Code     0  startup_stm32f401xe.o(.text)
    I2C2_EV_IRQHandler                       0x080001c3   Thumb Code     0  startup_stm32f401xe.o(.text)
    I2C3_ER_IRQHandler                       0x080001c3   Thumb Code     0  startup_stm32f401xe.o(.text)
    I2C3_EV_IRQHandler                       0x080001c3   Thumb Code     0  startup_stm32f401xe.o(.text)
    OTG_FS_IRQHandler                        0x080001c3   Thumb Code     0  startup_stm32f401xe.o(.text)
    OTG_FS_WKUP_IRQHandler                   0x080001c3   Thumb Code     0  startup_stm32f401xe.o(.text)
    PVD_IRQHandler                           0x080001c3   Thumb Code     0  startup_stm32f401xe.o(.text)
    RTC_Alarm_IRQHandler                     0x080001c3   Thumb Code     0  startup_stm32f401xe.o(.text)
    RTC_WKUP_IRQHandler                      0x080001c3   Thumb Code     0  startup_stm32f401xe.o(.text)
    SDIO_IRQHandler                          0x080001c3   Thumb Code     0  startup_stm32f401xe.o(.text)
    SPI1_IRQHandler                          0x080001c3   Thumb Code     0  startup_stm32f401xe.o(.text)
    SPI2_IRQHandler                          0x080001c3   Thumb Code     0  startup_stm32f401xe.o(.text)
    SPI3_IRQHandler                          0x080001c3   Thumb Code     0  startup_stm32f401xe.o(.text)
    SPI4_IRQHandler                          0x080001c3   Thumb Code     0  startup_stm32f401xe.o(.text)
    TAMP_STAMP_IRQHandler                    0x080001c3   Thumb Code     0  startup_stm32f401xe.o(.text)
    TIM1_BRK_TIM9_IRQHandler                 0x080001c3   Thumb Code     0  startup_stm32f401xe.o(.text)
    TIM1_CC_IRQHandler                       0x080001c3   Thumb Code     0  startup_stm32f401xe.o(.text)
    TIM1_TRG_COM_TIM11_IRQHandler            0x080001c3   Thumb Code     0  startup_stm32f401xe.o(.text)
    TIM1_UP_TIM10_IRQHandler                 0x080001c3   Thumb Code     0  startup_stm32f401xe.o(.text)
    TIM3_IRQHandler                          0x080001c3   Thumb Code     0  startup_stm32f401xe.o(.text)
    TIM4_IRQHandler                          0x080001c3   Thumb Code     0  startup_stm32f401xe.o(.text)
    TIM5_IRQHandler                          0x080001c3   Thumb Code     0  startup_stm32f401xe.o(.text)
    USART1_IRQHandler                        0x080001c3   Thumb Code     0  startup_stm32f401xe.o(.text)
    USART2_IRQHandler                        0x080001c3   Thumb Code     0  startup_stm32f401xe.o(.text)
    WWDG_IRQHandler                          0x080001c3   Thumb Code     0  startup_stm32f401xe.o(.text)
    __aeabi_memcpy                           0x080001cd   Thumb Code    36  memcpya.o(.text)
    __aeabi_memcpy4                          0x080001cd   Thumb Code     0  memcpya.o(.text)
    __aeabi_memcpy8                          0x080001cd   Thumb Code     0  memcpya.o(.text)
    __aeabi_memset                           0x080001f1   Thumb Code    14  memseta.o(.text)
    __aeabi_memset4                          0x080001f1   Thumb Code     0  memseta.o(.text)
    __aeabi_memset8                          0x080001f1   Thumb Code     0  memseta.o(.text)
    __aeabi_memclr                           0x080001ff   Thumb Code     4  memseta.o(.text)
    __aeabi_memclr4                          0x080001ff   Thumb Code     0  memseta.o(.text)
    __aeabi_memclr8                          0x080001ff   Thumb Code     0  memseta.o(.text)
    _memset$wrapper                          0x08000203   Thumb Code    18  memseta.o(.text)
    strcat                                   0x08000215   Thumb Code    24  strcat.o(.text)
    strlen                                   0x0800022d   Thumb Code    14  strlen.o(.text)
    memcmp                                   0x0800023b   Thumb Code    26  memcmp.o(.text)
    strcpy                                   0x08000255   Thumb Code    18  strcpy.o(.text)
    __aeabi_dadd                             0x08000267   Thumb Code   322  dadd.o(.text)
    __aeabi_dsub                             0x080003a9   Thumb Code     6  dadd.o(.text)
    __aeabi_drsub                            0x080003af   Thumb Code     6  dadd.o(.text)
    __aeabi_dmul                             0x080003b5   Thumb Code   228  dmul.o(.text)
    __aeabi_ui2d                             0x08000499   Thumb Code    26  dfltui.o(.text)
    __aeabi_d2uiz                            0x080004b3   Thumb Code    50  dfixui.o(.text)
    __aeabi_uidiv                            0x080004e5   Thumb Code     0  uidiv.o(.text)
    __aeabi_uidivmod                         0x080004e5   Thumb Code    44  uidiv.o(.text)
    __aeabi_llsl                             0x08000511   Thumb Code    30  llshl.o(.text)
    _ll_shift_l                              0x08000511   Thumb Code     0  llshl.o(.text)
    __aeabi_llsr                             0x0800052f   Thumb Code    32  llushr.o(.text)
    _ll_ushift_r                             0x0800052f   Thumb Code     0  llushr.o(.text)
    __aeabi_lasr                             0x0800054f   Thumb Code    36  llsshr.o(.text)
    _ll_sshift_r                             0x0800054f   Thumb Code     0  llsshr.o(.text)
    __I$use$fp                               0x08000573   Thumb Code     0  iusefp.o(.text)
    _double_round                            0x08000573   Thumb Code    30  depilogue.o(.text)
    _double_epilogue                         0x08000591   Thumb Code   156  depilogue.o(.text)
    __scatterload                            0x0800062d   Thumb Code    28  init.o(.text)
    __scatterload_rt2                        0x0800062d   Thumb Code     0  init.o(.text)
    __decompress                             0x08000651   Thumb Code     0  __dclz77c.o(.text)
    __decompress2                            0x08000651   Thumb Code    94  __dclz77c.o(.text)
    CFUN                                     0x0800085d   Thumb Code    46  at.o(i.CFUN)
    CGATT                                    0x0800089d   Thumb Code    46  at.o(i.CGATT)
    CGREG                                    0x080008dd   Thumb Code    46  at.o(i.CGREG)
    CIFSR                                    0x0800091d   Thumb Code    26  at.o(i.CIFSR)
    CIICR                                    0x08000945   Thumb Code    26  at.o(i.CIICR)
    CIPGSMLOC                                0x0800096d   Thumb Code    54  at.o(i.CIPGSMLOC)
    CMGD                                     0x080009bd   Thumb Code    50  at.o(i.CMGD)
    CMGF                                     0x08000a01   Thumb Code    46  at.o(i.CMGF)
    CMGR                                     0x08000a41   Thumb Code    34  at.o(i.CMGR)
    CMGS                                     0x08000a71   Thumb Code    40  at.o(i.CMGS)
    CMTE                                     0x08000aa9   Thumb Code    46  at.o(i.CMTE)
    COPS                                     0x08000ae9   Thumb Code    46  at.o(i.COPS)
    CREG                                     0x08000b29   Thumb Code    46  at.o(i.CREG)
    CSCS                                     0x08000b69   Thumb Code    52  at.o(i.CSCS)
    CSTT2                                    0x08000bb1   Thumb Code    84  at.o(i.CSTT2)
    Cmd_AT                                   0x08000c21   Thumb Code    18  at.o(i.Cmd_AT)
    Cmd_ATA                                  0x08000c3d   Thumb Code    18  at.o(i.Cmd_ATA)
    Cmd_ATE                                  0x08000c59   Thumb Code    26  at.o(i.Cmd_ATE)
    Cmd_ATH                                  0x08000c7d   Thumb Code    18  at.o(i.Cmd_ATH)
    DHT11                                    0x08000c99   Thumb Code    26  dht11.o(i.DHT11)
    DMA2_Stream0_IRQHandler                  0x08000cb9   Thumb Code     6  stm32f4xx_it.o(i.DMA2_Stream0_IRQHandler)
    EXTI15_10_IRQHandler                     0x08000d69   Thumb Code    44  stm32f4xx_it.o(i.EXTI15_10_IRQHandler)
    EXTI2_IRQHandler                         0x08000da1   Thumb Code    52  stm32f4xx_it.o(i.EXTI2_IRQHandler)
    EXTI3_IRQHandler                         0x08000de9   Thumb Code    52  stm32f4xx_it.o(i.EXTI3_IRQHandler)
    EXTI9_5_IRQHandler                       0x08000e31   Thumb Code    48  stm32f4xx_it.o(i.EXTI9_5_IRQHandler)
    HAL_ADC_ConfigChannel                    0x08000e85   Thumb Code   316  stm32f4xx_hal_adc.o(i.HAL_ADC_ConfigChannel)
    HAL_ADC_ConvCpltCallback                 0x08000fd1   Thumb Code     2  stm32f4xx_hal_adc.o(i.HAL_ADC_ConvCpltCallback)
    HAL_ADC_ConvHalfCpltCallback             0x08000fd3   Thumb Code     2  stm32f4xx_hal_adc.o(i.HAL_ADC_ConvHalfCpltCallback)
    HAL_ADC_ErrorCallback                    0x08000fd5   Thumb Code     2  stm32f4xx_hal_adc.o(i.HAL_ADC_ErrorCallback)
    HAL_ADC_Init                             0x08000fd7   Thumb Code    84  stm32f4xx_hal_adc.o(i.HAL_ADC_Init)
    HAL_ADC_MspInit                          0x0800102d   Thumb Code   130  stm32f4xx_hal_msp.o(i.HAL_ADC_MspInit)
    HAL_ADC_Start_DMA                        0x080010e9   Thumb Code   228  stm32f4xx_hal_adc.o(i.HAL_ADC_Start_DMA)
    HAL_DMA_Abort_IT                         0x080011e9   Thumb Code    36  stm32f4xx_hal_dma.o(i.HAL_DMA_Abort_IT)
    HAL_DMA_IRQHandler                       0x0800120d   Thumb Code   414  stm32f4xx_hal_dma.o(i.HAL_DMA_IRQHandler)
    HAL_DMA_Init                             0x080013b5   Thumb Code   206  stm32f4xx_hal_dma.o(i.HAL_DMA_Init)
    HAL_DMA_Start_IT                         0x08001489   Thumb Code   120  stm32f4xx_hal_dma.o(i.HAL_DMA_Start_IT)
    HAL_Delay                                0x08001501   Thumb Code    28  stm32f4xx_hal.o(i.HAL_Delay)
    HAL_GPIO_EXTI_Callback                   0x0800151d   Thumb Code     2  stm32f4xx_hal_gpio.o(i.HAL_GPIO_EXTI_Callback)
    HAL_GPIO_EXTI_IRQHandler                 0x08001521   Thumb Code    18  stm32f4xx_hal_gpio.o(i.HAL_GPIO_EXTI_IRQHandler)
    HAL_GPIO_Init                            0x08001539   Thumb Code   358  stm32f4xx_hal_gpio.o(i.HAL_GPIO_Init)
    HAL_GPIO_ReadPin                         0x080016c1   Thumb Code    10  stm32f4xx_hal_gpio.o(i.HAL_GPIO_ReadPin)
    HAL_GPIO_WritePin                        0x080016cb   Thumb Code    10  stm32f4xx_hal_gpio.o(i.HAL_GPIO_WritePin)
    HAL_GetTick                              0x080016d5   Thumb Code     6  stm32f4xx_hal.o(i.HAL_GetTick)
    HAL_IncTick                              0x080016e1   Thumb Code    10  stm32f4xx_hal.o(i.HAL_IncTick)
    HAL_Init                                 0x080016f1   Thumb Code    48  stm32f4xx_hal.o(i.HAL_Init)
    HAL_InitTick                             0x08001725   Thumb Code    34  stm32f4xx_hal.o(i.HAL_InitTick)
    HAL_MspInit                              0x0800174d   Thumb Code   104  stm32f4xx_hal_msp.o(i.HAL_MspInit)
    HAL_NVIC_EnableIRQ                       0x080017b5   Thumb Code    22  stm32f4xx_hal_cortex.o(i.HAL_NVIC_EnableIRQ)
    HAL_NVIC_SetPriority                     0x080017cd   Thumb Code    60  stm32f4xx_hal_cortex.o(i.HAL_NVIC_SetPriority)
    HAL_NVIC_SetPriorityGrouping             0x0800180d   Thumb Code    26  stm32f4xx_hal_cortex.o(i.HAL_NVIC_SetPriorityGrouping)
    HAL_PWR_EnableBkUpAccess                 0x08001831   Thumb Code    20  stm32f4xx_hal_pwr.o(i.HAL_PWR_EnableBkUpAccess)
    HAL_RCCEx_PeriphCLKConfig                0x08001849   Thumb Code   334  stm32f4xx_hal_rcc_ex.o(i.HAL_RCCEx_PeriphCLKConfig)
    HAL_RCC_ClockConfig                      0x080019b1   Thumb Code   364  stm32f4xx_hal_rcc.o(i.HAL_RCC_ClockConfig)
    HAL_RCC_GetHCLKFreq                      0x08001b2d   Thumb Code     6  stm32f4xx_hal_rcc.o(i.HAL_RCC_GetHCLKFreq)
    HAL_RCC_GetPCLK1Freq                     0x08001b39   Thumb Code    34  stm32f4xx_hal_rcc.o(i.HAL_RCC_GetPCLK1Freq)
    HAL_RCC_GetPCLK2Freq                     0x08001b69   Thumb Code    34  stm32f4xx_hal_rcc.o(i.HAL_RCC_GetPCLK2Freq)
    HAL_RCC_GetSysClockFreq                  0x08001b99   Thumb Code   104  stm32f4xx_hal_rcc.o(i.HAL_RCC_GetSysClockFreq)
    HAL_RCC_OscConfig                        0x08001c09   Thumb Code   770  stm32f4xx_hal_rcc.o(i.HAL_RCC_OscConfig)
    HAL_RTCEx_BKUPRead                       0x08001f1d   Thumb Code    10  stm32f4xx_hal_rtc_ex.o(i.HAL_RTCEx_BKUPRead)
    HAL_RTCEx_BKUPWrite                      0x08001f27   Thumb Code    10  stm32f4xx_hal_rtc_ex.o(i.HAL_RTCEx_BKUPWrite)
    HAL_RTC_GetDate                          0x08001f31   Thumb Code    62  stm32f4xx_hal_rtc.o(i.HAL_RTC_GetDate)
    HAL_RTC_GetTime                          0x08001f75   Thumb Code    82  stm32f4xx_hal_rtc.o(i.HAL_RTC_GetTime)
    HAL_RTC_Init                             0x08001fcd   Thumb Code   150  stm32f4xx_hal_rtc.o(i.HAL_RTC_Init)
    HAL_RTC_MspInit                          0x08002069   Thumb Code    16  stm32f4xx_hal_msp.o(i.HAL_RTC_MspInit)
    HAL_RTC_SetDate                          0x08002081   Thumb Code   204  stm32f4xx_hal_rtc.o(i.HAL_RTC_SetDate)
    HAL_RTC_SetTime                          0x08002151   Thumb Code   236  stm32f4xx_hal_rtc.o(i.HAL_RTC_SetTime)
    HAL_RTC_WaitForSynchro                   0x08002241   Thumb Code    54  stm32f4xx_hal_rtc.o(i.HAL_RTC_WaitForSynchro)
    HAL_SYSTICK_CLKSourceConfig              0x08002277   Thumb Code    24  stm32f4xx_hal_cortex.o(i.HAL_SYSTICK_CLKSourceConfig)
    HAL_SYSTICK_Callback                     0x0800228f   Thumb Code     2  stm32f4xx_hal_cortex.o(i.HAL_SYSTICK_Callback)
    HAL_SYSTICK_Config                       0x08002291   Thumb Code    40  stm32f4xx_hal_cortex.o(i.HAL_SYSTICK_Config)
    HAL_SYSTICK_IRQHandler                   0x080022b9   Thumb Code     8  stm32f4xx_hal_cortex.o(i.HAL_SYSTICK_IRQHandler)
    HAL_TIMEx_BreakCallback                  0x080022c1   Thumb Code     2  stm32f4xx_hal_tim_ex.o(i.HAL_TIMEx_BreakCallback)
    HAL_TIMEx_CommutationCallback            0x080022c3   Thumb Code     2  stm32f4xx_hal_tim_ex.o(i.HAL_TIMEx_CommutationCallback)
    HAL_TIMEx_MasterConfigSynchronization    0x080022c5   Thumb Code    80  stm32f4xx_hal_tim_ex.o(i.HAL_TIMEx_MasterConfigSynchronization)
    HAL_TIM_Base_Init                        0x08002315   Thumb Code    54  stm32f4xx_hal_tim.o(i.HAL_TIM_Base_Init)
    HAL_TIM_Base_MspInit                     0x0800234d   Thumb Code    72  stm32f4xx_hal_msp.o(i.HAL_TIM_Base_MspInit)
    HAL_TIM_Base_Start                       0x0800239d   Thumb Code    26  stm32f4xx_hal_tim.o(i.HAL_TIM_Base_Start)
    HAL_TIM_Base_Start_IT                    0x080023b7   Thumb Code    24  stm32f4xx_hal_tim.o(i.HAL_TIM_Base_Start_IT)
    HAL_TIM_Base_Stop_IT                     0x080023cf   Thumb Code    42  stm32f4xx_hal_tim.o(i.HAL_TIM_Base_Stop_IT)
    HAL_TIM_ConfigClockSource                0x080023f9   Thumb Code   242  stm32f4xx_hal_tim.o(i.HAL_TIM_ConfigClockSource)
    HAL_TIM_IC_CaptureCallback               0x080024eb   Thumb Code     2  stm32f4xx_hal_tim.o(i.HAL_TIM_IC_CaptureCallback)
    HAL_TIM_IRQHandler                       0x080024ed   Thumb Code   358  stm32f4xx_hal_tim.o(i.HAL_TIM_IRQHandler)
    HAL_TIM_OC_DelayElapsedCallback          0x08002653   Thumb Code     2  stm32f4xx_hal_tim.o(i.HAL_TIM_OC_DelayElapsedCallback)
    HAL_TIM_PWM_PulseFinishedCallback        0x08002655   Thumb Code     2  stm32f4xx_hal_tim.o(i.HAL_TIM_PWM_PulseFinishedCallback)
    HAL_TIM_PeriodElapsedCallback            0x08002657   Thumb Code     2  stm32f4xx_hal_tim.o(i.HAL_TIM_PeriodElapsedCallback)
    HAL_TIM_TriggerCallback                  0x08002659   Thumb Code     2  stm32f4xx_hal_tim.o(i.HAL_TIM_TriggerCallback)
    HAL_UART_ErrorCallback                   0x0800265b   Thumb Code     2  stm32f4xx_hal_uart.o(i.HAL_UART_ErrorCallback)
    HAL_UART_IRQHandler                      0x0800265d   Thumb Code   266  stm32f4xx_hal_uart.o(i.HAL_UART_IRQHandler)
    HAL_UART_Init                            0x0800276d   Thumb Code    98  stm32f4xx_hal_uart.o(i.HAL_UART_Init)
    HAL_UART_MspInit                         0x080027d1   Thumb Code    78  stm32f4xx_hal_msp.o(i.HAL_UART_MspInit)
    HAL_UART_Receive_IT                      0x0800282d   Thumb Code    72  stm32f4xx_hal_uart.o(i.HAL_UART_Receive_IT)
    HAL_UART_RxCpltCallback                  0x08002875   Thumb Code   260  fibocom.o(i.HAL_UART_RxCpltCallback)
    HAL_UART_Transmit_IT                     0x08002991   Thumb Code    62  stm32f4xx_hal_uart.o(i.HAL_UART_Transmit_IT)
    HAL_UART_TxCpltCallback                  0x080029cf   Thumb Code     2  stm32f4xx_hal_uart.o(i.HAL_UART_TxCpltCallback)
    IPR                                      0x080029d1   Thumb Code    46  at.o(i.IPR)
    Inicializacion                           0x08002a0d   Thumb Code   780  funcioninicializacion.o(i.Inicializacion)
    LCD_TwoLines                             0x08002d35   Thumb Code    26  stm_my_lcd16x2.o(i.LCD_TwoLines)
    LCD_begin4BIT                            0x08002d55   Thumb Code   122  stm_my_lcd16x2.o(i.LCD_begin4BIT)
    LCD_clear                                0x08002dd9   Thumb Code    24  stm_my_lcd16x2.o(i.LCD_clear)
    LCD_noCursor                             0x08002df1   Thumb Code    26  stm_my_lcd16x2.o(i.LCD_noCursor)
    LCD_setCursor                            0x08002e11   Thumb Code    40  stm_my_lcd16x2.o(i.LCD_setCursor)
    LCD_writeChar                            0x08002e39   Thumb Code    20  stm_my_lcd16x2.o(i.LCD_writeChar)
    MSJ                                      0x08002e4d   Thumb Code    16  at.o(i.MSJ)
    MX_RTC_Init                              0x08003059   Thumb Code   156  main.o(i.MX_RTC_Init)
    Module_Write_str                         0x080031a5   Thumb Code    48  fibocom.o(i.Module_Write_str)
    OneWire_Init                             0x080031fd   Thumb Code     8  main.o(i.OneWire_Init)
    POSTHTTP                                 0x08003205   Thumb Code   470  posthttp.o(i.POSTHTTP)
    PendSV_Handler                           0x08003449   Thumb Code     2  stm32f4xx_it.o(i.PendSV_Handler)
    RCC_IRQHandler                           0x0800344b   Thumb Code     2  stm32f4xx_it.o(i.RCC_IRQHandler)
    RTC_Bcd2ToByte                           0x08003461   Thumb Code    18  stm32f4xx_hal_rtc.o(i.RTC_Bcd2ToByte)
    RTC_ByteToBcd2                           0x08003473   Thumb Code    22  stm32f4xx_hal_rtc.o(i.RTC_ByteToBcd2)
    RTC_EnterInitMode                        0x08003489   Thumb Code    58  stm32f4xx_hal_rtc.o(i.RTC_EnterInitMode)
    ReportTemperature                        0x080034c5   Thumb Code   222  main.o(i.ReportTemperature)
    SAPBR                                    0x080035ad   Thumb Code    54  at.o(i.SAPBR)
    SAPBRCONFG                               0x080035f9   Thumb Code    90  at.o(i.SAPBRCONFG)
    SMSquery                                 0x08003675   Thumb Code  1844  responsesms.o(i.SMSquery)
    SVC_Handler                              0x08003de1   Thumb Code     2  stm32f4xx_it.o(i.SVC_Handler)
    Send                                     0x08003de5   Thumb Code    42  sendmessage.o(i.Send)
    SysTick_Handler                          0x08003ec5   Thumb Code    14  stm32f4xx_it.o(i.SysTick_Handler)
    SystemClock_Config                       0x08003ed5   Thumb Code   174  main.o(i.SystemClock_Config)
    SystemInit                               0x08003f8d   Thumb Code    66  system_stm32f4xx.o(i.SystemInit)
    TIM2_IRQHandler                          0x08003fe1   Thumb Code    88  stm32f4xx_it.o(i.TIM2_IRQHandler)
    TIM_Base_SetConfig                       0x08004051   Thumb Code   114  stm32f4xx_hal_tim.o(i.TIM_Base_SetConfig)
    USART6_IRQHandler                        0x08004515   Thumb Code     6  stm32f4xx_it.o(i.USART6_IRQHandler)
    _Error_Handler                           0x08004521   Thumb Code     2  main.o(i._Error_Handler)
    __0snprintf$6                            0x08004525   Thumb Code    44  printf6.o(i.__0snprintf$6)
    __1snprintf$6                            0x08004525   Thumb Code     0  printf6.o(i.__0snprintf$6)
    __2snprintf                              0x08004525   Thumb Code     0  printf6.o(i.__0snprintf$6)
    __0sprintf$6                             0x08004555   Thumb Code    34  printf6.o(i.__0sprintf$6)
    __1sprintf$6                             0x08004555   Thumb Code     0  printf6.o(i.__0sprintf$6)
    __2sprintf                               0x08004555   Thumb Code     0  printf6.o(i.__0sprintf$6)
    __scatterload_copy                       0x0800457d   Thumb Code    14  handlers.o(i.__scatterload_copy)
    __scatterload_null                       0x0800458b   Thumb Code     2  handlers.o(i.__scatterload_null)
    __scatterload_zeroinit                   0x0800458d   Thumb Code    14  handlers.o(i.__scatterload_zeroinit)
    controlAmbiental                         0x08004901   Thumb Code   262  controlambiental.o(i.controlAmbiental)
    controlHumAmb                            0x08004a25   Thumb Code   196  humamb.o(i.controlHumAmb)
    controlHumComp                           0x08004b15   Thumb Code   166  humcomp.o(i.controlHumComp)
    controlTempAmb                           0x08004bd5   Thumb Code   286  tempamb.o(i.controlTempAmb)
    controlTempComp                          0x08004d3d   Thumb Code   174  tempcomp.o(i.controlTempComp)
    crc8                                     0x08004e05   Thumb Code    44  main.o(i.crc8)
    cultivation                              0x08004e35   Thumb Code   412  ctrlfase.o(i.cultivation)
    dateRTC                                  0x08004fdd   Thumb Code   160  main.o(i.dateRTC)
    delay_us                                 0x08005085   Thumb Code    24  main.o(i.delay_us)
    digitalRead                              0x0800509d   Thumb Code    18  dht11.o(i.digitalRead)
    digitalWrite                             0x080050b5   Thumb Code    16  dht11.o(i.digitalWrite)
    disp_enviar                              0x080050c9   Thumb Code    54  main.o(i.disp_enviar)
    fase                                     0x080050ff   Thumb Code    20  fase.o(i.fase)
    fibocom_bsp_init                         0x08005115   Thumb Code    16  fibocom.o(i.fibocom_bsp_init)
    getHumTemp                               0x0800512d   Thumb Code   452  humtemp.o(i.getHumTemp)
    getLight                                 0x08005391   Thumb Code    30  light.o(i.getLight)
    getSoilHumidity                          0x080053b5   Thumb Code   140  soilhumidity.o(i.getSoilHumidity)
    initGPRS                                 0x08005461   Thumb Code   354  confggprs.o(i.initGPRS)
    initGSM                                  0x08005605   Thumb Code   216  confggsm.o(i.initGSM)
    main                                     0x080056f1   Thumb Code  4600  main.o(i.main)
    micros                                   0x080068ed   Thumb Code     8  main.o(i.micros)
    mnu_HumTemp_periodica                    0x080068f9   Thumb Code   180  menu.o(i.mnu_HumTemp_periodica)
    mnu_SoilHumidity_periodica               0x080069e9   Thumb Code   172  menu.o(i.mnu_SoilHumidity_periodica)
    mnu_cambio_seleccion                     0x08006ac5   Thumb Code    52  menu.o(i.mnu_cambio_seleccion)
    mnu_confirmar_clave                      0x08006afd   Thumb Code    30  menu.o(i.mnu_confirmar_clave)
    mnu_confirmar_guardar_flag               0x08006b41   Thumb Code    30  menu.o(i.mnu_confirmar_guardar_flag)
    mnu_dibujar_elemento_menu                0x08006b85   Thumb Code   264  menu.o(i.mnu_dibujar_elemento_menu)
    mnu_dibujar_flag                         0x08006cad   Thumb Code    98  menu.o(i.mnu_dibujar_flag)
    mnu_dibujar_numero_clave                 0x08006d49   Thumb Code   138  menu.o(i.mnu_dibujar_numero_clave)
    mnu_dummy_function                       0x08006df9   Thumb Code     2  menu.o(i.mnu_dummy_function)
    mnu_dummy_function_ger                   0x08006dfd   Thumb Code    30  menu.o(i.mnu_dummy_function_ger)
    mnu_dummy_function_hum                   0x08006e29   Thumb Code    42  menu.o(i.mnu_dummy_function_hum)
    mnu_dummy_function_indfruct              0x08006e65   Thumb Code    30  menu.o(i.mnu_dummy_function_indfruct)
    mnu_dummy_function_light                 0x08006e91   Thumb Code    46  menu.o(i.mnu_dummy_function_light)
    mnu_dummy_function_no                    0x08006edd   Thumb Code    30  menu.o(i.mnu_dummy_function_no)
    mnu_dummy_function_pfruct                0x08006f09   Thumb Code    30  menu.o(i.mnu_dummy_function_pfruct)
    mnu_dummy_function_plfruct               0x08006f35   Thumb Code    30  menu.o(i.mnu_dummy_function_plfruct)
    mnu_dummy_function_restfruct             0x08006f61   Thumb Code    30  menu.o(i.mnu_dummy_function_restfruct)
    mnu_dummy_function_tank                  0x08006f8d   Thumb Code    46  menu.o(i.mnu_dummy_function_tank)
    mnu_dummy_function_temp                  0x08006fdd   Thumb Code    38  menu.o(i.mnu_dummy_function_temp)
    mnu_efectos_clave                        0x08007015   Thumb Code    12  menu.o(i.mnu_efectos_clave)
    mnu_efectos_fijar_flag                   0x08007029   Thumb Code    14  menu.o(i.mnu_efectos_fijar_flag)
    mnu_efectos_mostrar_msj                  0x0800703d   Thumb Code    24  menu.o(i.mnu_efectos_mostrar_msj)
    mnu_ejecutar_funcion                     0x08007059   Thumb Code    12  menu.o(i.mnu_ejecutar_funcion)
    mnu_ejecutar_funcion_periodica           0x08007069   Thumb Code    12  menu.o(i.mnu_ejecutar_funcion_periodica)
    mnu_eventos_clave                        0x08007079   Thumb Code   166  menu.o(i.mnu_eventos_clave)
    mnu_eventos_confirmar_clave              0x0800712d   Thumb Code    88  menu.o(i.mnu_eventos_confirmar_clave)
    mnu_eventos_confirmar_guardar_flag       0x080071c5   Thumb Code    50  menu.o(i.mnu_eventos_confirmar_guardar_flag)
    mnu_eventos_fijar_flag                   0x08007215   Thumb Code   122  menu.o(i.mnu_eventos_fijar_flag)
    mnu_eventos_mostrar_msj                  0x08007295   Thumb Code    16  menu.o(i.mnu_eventos_mostrar_msj)
    mnu_eventos_submenu                      0x080072a9   Thumb Code    96  menu.o(i.mnu_eventos_submenu)
    mnu_fijar_clave                          0x0800730d   Thumb Code    98  menu.o(i.mnu_fijar_clave)
    mnu_fijar_clave_init                     0x080073ad   Thumb Code    14  menu.o(i.mnu_fijar_clave_init)
    mnu_fijar_flag                           0x080073c1   Thumb Code    50  menu.o(i.mnu_fijar_flag)
    mnu_guardar_flag                         0x08007415   Thumb Code    10  menu.o(i.mnu_guardar_flag)
    mnu_levelTank_periodica                  0x08007439   Thumb Code    68  menu.o(i.mnu_levelTank_periodica)
    mnu_light_periodica                      0x080074c9   Thumb Code    68  menu.o(i.mnu_light_periodica)
    mnu_mostrar_menu                         0x08007559   Thumb Code    54  menu.o(i.mnu_mostrar_menu)
    mnu_mostrar_menu_anterior                0x08007599   Thumb Code    12  menu.o(i.mnu_mostrar_menu_anterior)
    mnu_mostrar_msj                          0x08007605   Thumb Code    38  menu.o(i.mnu_mostrar_msj)
    mnu_procesar_clave                       0x08007639   Thumb Code   112  menu.o(i.mnu_procesar_clave)
    mnu_salir                                0x080076ed   Thumb Code    20  menu.o(i.mnu_salir)
    pinMode                                  0x08007705   Thumb Code    36  dht11.o(i.pinMode)
    read                                     0x0800772d   Thumb Code   152  dht11.o(i.read)
    readByte                                 0x080077c9   Thumb Code    62  dht11.o(i.readByte)
    tempSensor                               0x08007881   Thumb Code   178  tempmcu.o(i.tempSensor)
    timeRTC                                  0x08007975   Thumb Code   118  main.o(i.timeRTC)
    waitFor                                  0x080079f5   Thumb Code    18  dht11.o(i.waitFor)
    waitForT                                 0x08007a0d   Thumb Code    54  dht11.o(i.waitForT)
    AHBPrescTable                            0x08007c40   Data          16  system_stm32f4xx.o(.constdata)
    APBPrescTable                            0x08007c50   Data           8  system_stm32f4xx.o(.constdata)
    Region$$Table$$Base                      0x08007da4   Number         0  anon$$obj.o(Region$$Table)
    Region$$Table$$Limit                     0x08007dc4   Number         0  anon$$obj.o(Region$$Table)
    uwTick                                   0x20000000   Data           4  stm32f4xx_hal.o(.data)
    prv                                      0x20000004   Data           8  dht11.o(.data)
    confirmar                                0x20000034   Data           1  menu.o(.data)
    cambiar_clave                            0x20000037   Data           1  menu.o(.data)
    intento_clave                            0x20000038   Data           1  menu.o(.data)
    CampoAEstablecer                         0x2000003c   Data           4  menu.o(.data)
    MenuActual                               0x20000040   Data           4  menu.o(.data)
    MenuAuxClave                             0x20000044   Data           4  menu.o(.data)
    ElementoSeleccionActual                  0x20000048   Data           4  menu.o(.data)
    LineaElemSeleccion                       0x2000004c   Data           4  menu.o(.data)
    NumeroElemMenuActual                     0x20000050   Data           4  menu.o(.data)
    auxFlag                                  0x20000054   Data           4  menu.o(.data)
    auxFlagValor                             0x20000058   Data           4  menu.o(.data)
    tiempoMensaje                            0x2000005c   Data           4  menu.o(.data)
    menuElemIndex                            0x20000060   Data           4  menu.o(.data)
    FuncionActualEjecucion                   0x20000064   Data           4  menu.o(.data)
    FuncionPeriodica                         0x20000068   Data           4  menu.o(.data)
    MenuPrincipal                            0x2000006c   Data          60  menu.o(.data)
    MenuPrincipal2                           0x200000e8   Data          60  menu.o(.data)
    SubMenu1                                 0x20000124   Data          84  menu.o(.data)
    SubMenu2                                 0x20000178   Data          72  menu.o(.data)
    SubMenu3                                 0x200001c0   Data          96  menu.o(.data)
    faseHumAmbSetPoint                       0x20000220   Data          20  humamb.o(.data)
    faseHumCompSetPoint                      0x20000234   Data          20  humcomp.o(.data)
    faseTemAmbSetPoint                       0x20000248   Data          20  tempamb.o(.data)
    faseTemCompSetPoint                      0x2000025c   Data          20  tempcomp.o(.data)
    ATEnd                                    0x20000274   Data           3  at.o(.data)
    ATBegin                                  0x20000277   Data           4  at.o(.data)
    ctrl                                     0x2000027c   Data           1  funcioninicializacion.o(.data)
    intento                                  0x2000027d   Data           1  funcioninicializacion.o(.data)
    caso                                     0x2000027e   Data           1  confggsm.o(.data)
    retryTimes                               0x2000027f   Data           1  confggsm.o(.data)
    GPRS                                     0x20000280   Data           1  confggprs.o(.data)
    retry                                    0x20000281   Data           1  confggprs.o(.data)
    action                                   0x20000282   Data           1  posthttp.o(.data)
    SystemCoreClock                          0x20000284   Data           4  system_stm32f4xx.o(.data)
    system                                   0x20000288   Data           1  main.o(.data)
    msj                                      0x20000289   Data           1  main.o(.data)
    variable                                 0x2000028a   Data           1  main.o(.data)
    process                                  0x2000028b   Data           1  main.o(.data)
    iTim                                     0x2000028c   Data           1  main.o(.data)
    cntHMI                                   0x2000028d   Data           1  main.o(.data)
    cntHMI2                                  0x2000028e   Data           1  main.o(.data)
    display                                  0x2000028f   Data           1  main.o(.data)
    date                                     0x20000290   Data           1  main.o(.data)
    crcMcu                                   0x20000291   Data           1  main.o(.data)
    crcSensor                                0x20000292   Data           1  main.o(.data)
    state                                    0x20000293   Data           1  main.o(.data)
    msg                                      0x20000294   Data           1  main.o(.data)
    call                                     0x20000295   Data           1  main.o(.data)
    stateData                                0x20000296   Data           1  main.o(.data)
    g_cntData                                0x20000297   Data           1  main.o(.data)
    b_firstRound                             0x20000298   Data           1  main.o(.data)
    setDate                                  0x20000299   Data           1  main.o(.data)
    setMonth                                 0x2000029a   Data           1  main.o(.data)
    humidity1                                0x2000029b   Data           1  main.o(.data)
    humidity2                                0x2000029c   Data           1  main.o(.data)
    temperature1                             0x2000029d   Data           1  main.o(.data)
    temperature2                             0x2000029e   Data           1  main.o(.data)
    tempSensorMCU                            0x200002a0   Data           2  main.o(.data)
    Time                                     0x200002a2   Data           2  main.o(.data)
    cntDate                                  0x200002a4   Data           2  main.o(.data)
    hum1                                     0x200002a6   Data           2  main.o(.data)
    hum2                                     0x200002a8   Data           2  main.o(.data)
    LcdRefreshTime                           0x200002ac   Data           4  main.o(.data)
    Date                                     0x200002b0   Data           4  main.o(.data)
    sDateStructureGet                        0x200002b4   Data           4  main.o(.data)
    buffer                                   0x200002b8   Data           6  main.o(.data)
    timeLCD                                  0x200002be   Data          17  main.o(.data)
    dateLCD                                  0x200002cf   Data          17  main.o(.data)
    temperaturaAmbiental                     0x200002e0   Data          49  main.o(.data)
    humedadAmbiental                         0x20000311   Data          45  main.o(.data)
    temperaturaSustrato                      0x2000033e   Data          52  main.o(.data)
    humedadSustrato                          0x20000372   Data          48  main.o(.data)
    temperaturaSim800                        0x200003a2   Data          50  main.o(.data)
    temperaturaMCU                           0x200003d4   Data          47  main.o(.data)
    msjAllVariables                          0x20000403   Data         237  main.o(.data)
    updtVariables                            0x200004f0   Data         100  main.o(.data)
    V25                                      0x20000554   Data           4  main.o(.data)
    Avg_Slope                                0x20000558   Data           4  main.o(.data)
    sensorOptic                              0x2000055c   Data           1  main.o(.data)
    DHT11_1                                  0x2000055d   Data           1  main.o(.data)
    DHT11_2                                  0x2000055e   Data           1  main.o(.data)
    tempComp1                                0x20000560   Data           2  main.o(.data)
    numeroTelefonicoAlertas                  0x20000562   Data          14  main.o(.data)
    numeroTelefonico                         0x20000570   Data          14  main.o(.data)
    iluminacion                              0x2000057e   Data          53  main.o(.data)
    nivelTanque                              0x200005b3   Data          45  main.o(.data)
    errorMsj                                 0x200005e0   Data          34  main.o(.data)
    alertaTempAlta                           0x20000602   Data          38  main.o(.data)
    alertaTempBaja                           0x20000628   Data          38  main.o(.data)
    alertaHumBaja                            0x2000064e   Data          34  main.o(.data)
    alertaTempMCU                            0x20000670   Data          78  main.o(.data)
    alertaTempMcuHigh                        0x200006be   Data           1  main.o(.data)
    levelTank                                0x200006bf   Data           1  main.o(.data)
    cntAA                                    0x200006c0   Data           1  main.o(.data)
    cntLight                                 0x200006c1   Data           1  main.o(.data)
    cntHum                                   0x200006c2   Data           1  main.o(.data)
    cntHumComp                               0x200006c3   Data           1  main.o(.data)
    temperature11                            0x200006c4   Data           1  main.o(.data)
    alertaHumLow                             0x200006c5   Data           1  main.o(.data)
    alertaTempLow                            0x200006c6   Data           1  main.o(.data)
    alertaTempHigh                           0x200006c7   Data           1  main.o(.data)
    countTemp                                0x200006c8   Data           1  main.o(.data)
    countHum                                 0x200006c9   Data           1  main.o(.data)
    humTotal                                 0x200006ca   Data           2  main.o(.data)
    sPassword                                0x200006cc   Data          64  menu.o(.bss)
    sPassword2                               0x2000070c   Data          64  menu.o(.bss)
    hadc1                                    0x2000074c   Data          72  main.o(.bss)
    hrtc                                     0x20000794   Data          32  main.o(.bss)
    htim2                                    0x200007b4   Data          60  main.o(.bss)
    htim5                                    0x200007f0   Data          60  main.o(.bss)
    huart6                                   0x2000082c   Data          64  main.o(.bss)
    sTimeStructureGet                        0x2000086c   Data          20  main.o(.bss)
    _year                                    0x20000880   Data          15  main.o(.bss)
    _month                                   0x2000088f   Data          15  main.o(.bss)
    _date                                    0x2000089e   Data          15  main.o(.bss)
    _hour                                    0x200008ad   Data          15  main.o(.bss)
    _min                                     0x200008bc   Data          15  main.o(.bss)
    buffRx                                   0x200008cb   Data        2000  main.o(.bss)
    temp                                     0x2000109b   Data          99  main.o(.bss)
    hum                                      0x200010fe   Data          99  main.o(.bss)
    iVariable                                0x20001161   Data           9  main.o(.bss)
    cond                                     0x2000116a   Data           9  main.o(.bss)
    erase                                    0x20001173   Data           9  main.o(.bss)
    hdma_adc1                                0x2000117c   Data          96  main.o(.bss)
    __initial_sp                             0x200015e0   Data           0  startup_stm32f401xe.o(STACK)



==============================================================================

Memory Map of the image

  Image Entry point : 0x08000195

  Load Region LR_IROM1 (Base: 0x08000000, Size: 0x00008490, Max: 0x00080000, ABSOLUTE, COMPRESSED[0x00008098])

    Execution Region ER_IROM1 (Exec base: 0x08000000, Load base: 0x08000000, Size: 0x00007dc4, Max: 0x00080000, ABSOLUTE)

    Exec Addr    Load Addr    Size         Type   Attr      Idx    E Section Name        Object

    0x08000000   0x08000000   0x00000194   Data   RO         4923    RESET               startup_stm32f401xe.o
    0x08000194   0x08000194   0x00000000   Code   RO         4942  * .ARM.Collect$$$$00000000  mc_w.l(entry.o)
    0x08000194   0x08000194   0x00000004   Code   RO         5281    .ARM.Collect$$$$00000001  mc_w.l(entry2.o)
    0x08000198   0x08000198   0x00000004   Code   RO         5284    .ARM.Collect$$$$00000004  mc_w.l(entry5.o)
    0x0800019c   0x0800019c   0x00000000   Code   RO         5286    .ARM.Collect$$$$00000008  mc_w.l(entry7b.o)
    0x0800019c   0x0800019c   0x00000000   Code   RO         5288    .ARM.Collect$$$$0000000A  mc_w.l(entry8b.o)
    0x0800019c   0x0800019c   0x00000008   Code   RO         5289    .ARM.Collect$$$$0000000B  mc_w.l(entry9a.o)
    0x080001a4   0x080001a4   0x00000000   Code   RO         5291    .ARM.Collect$$$$0000000D  mc_w.l(entry10a.o)
    0x080001a4   0x080001a4   0x00000000   Code   RO         5293    .ARM.Collect$$$$0000000F  mc_w.l(entry11a.o)
    0x080001a4   0x080001a4   0x00000004   Code   RO         5282    .ARM.Collect$$$$00002712  mc_w.l(entry2.o)
    0x080001a8   0x080001a8   0x00000024   Code   RO         4924    .text               startup_stm32f401xe.o
    0x080001cc   0x080001cc   0x00000024   Code   RO         4945    .text               mc_w.l(memcpya.o)
    0x080001f0   0x080001f0   0x00000024   Code   RO         4947    .text               mc_w.l(memseta.o)
    0x08000214   0x08000214   0x00000018   Code   RO         4949    .text               mc_w.l(strcat.o)
    0x0800022c   0x0800022c   0x0000000e   Code   RO         4953    .text               mc_w.l(strlen.o)
    0x0800023a   0x0800023a   0x0000001a   Code   RO         4957    .text               mc_w.l(memcmp.o)
    0x08000254   0x08000254   0x00000012   Code   RO         4959    .text               mc_w.l(strcpy.o)
    0x08000266   0x08000266   0x0000014e   Code   RO         5230    .text               mf_w.l(dadd.o)
    0x080003b4   0x080003b4   0x000000e4   Code   RO         5232    .text               mf_w.l(dmul.o)
    0x08000498   0x08000498   0x0000001a   Code   RO         5236    .text               mf_w.l(dfltui.o)
    0x080004b2   0x080004b2   0x00000032   Code   RO         5238    .text               mf_w.l(dfixui.o)
    0x080004e4   0x080004e4   0x0000002c   Code   RO         5298    .text               mc_w.l(uidiv.o)
    0x08000510   0x08000510   0x0000001e   Code   RO         5302    .text               mc_w.l(llshl.o)
    0x0800052e   0x0800052e   0x00000020   Code   RO         5304    .text               mc_w.l(llushr.o)
    0x0800054e   0x0800054e   0x00000024   Code   RO         5306    .text               mc_w.l(llsshr.o)
    0x08000572   0x08000572   0x00000000   Code   RO         5315    .text               mc_w.l(iusefp.o)
    0x08000572   0x08000572   0x000000ba   Code   RO         5318    .text               mf_w.l(depilogue.o)
    0x0800062c   0x0800062c   0x00000024   Code   RO         5330    .text               mc_w.l(init.o)
    0x08000650   0x08000650   0x0000005e   Code   RO         5346    .text               mc_w.l(__dclz77c.o)
    0x080006ae   0x080006ae   0x00000062   Code   RO         1158    i.ADC_DMAConvCplt   stm32f4xx_hal_adc.o
    0x08000710   0x08000710   0x00000016   Code   RO         1159    i.ADC_DMAError      stm32f4xx_hal_adc.o
    0x08000726   0x08000726   0x0000000a   Code   RO         1160    i.ADC_DMAHalfConvCplt  stm32f4xx_hal_adc.o
    0x08000730   0x08000730   0x0000012c   Code   RO         1161    i.ADC_Init          stm32f4xx_hal_adc.o
    0x0800085c   0x0800085c   0x00000040   Code   RO         3892    i.CFUN              at.o
    0x0800089c   0x0800089c   0x00000040   Code   RO         3893    i.CGATT             at.o
    0x080008dc   0x080008dc   0x00000040   Code   RO         3894    i.CGREG             at.o
    0x0800091c   0x0800091c   0x00000028   Code   RO         3896    i.CIFSR             at.o
    0x08000944   0x08000944   0x00000028   Code   RO         3897    i.CIICR             at.o
    0x0800096c   0x0800096c   0x00000050   Code   RO         3898    i.CIPGSMLOC         at.o
    0x080009bc   0x080009bc   0x00000044   Code   RO         3900    i.CMGD              at.o
    0x08000a00   0x08000a00   0x00000040   Code   RO         3901    i.CMGF              at.o
    0x08000a40   0x08000a40   0x00000030   Code   RO         3903    i.CMGR              at.o
    0x08000a70   0x08000a70   0x00000038   Code   RO         3904    i.CMGS              at.o
    0x08000aa8   0x08000aa8   0x00000040   Code   RO         3905    i.CMTE              at.o
    0x08000ae8   0x08000ae8   0x00000040   Code   RO         3906    i.COPS              at.o
    0x08000b28   0x08000b28   0x00000040   Code   RO         3910    i.CREG              at.o
    0x08000b68   0x08000b68   0x00000048   Code   RO         3911    i.CSCS              at.o
    0x08000bb0   0x08000bb0   0x00000070   Code   RO         3915    i.CSTT2             at.o
    0x08000c20   0x08000c20   0x0000001c   Code   RO         3917    i.Cmd_AT            at.o
    0x08000c3c   0x08000c3c   0x0000001c   Code   RO         3918    i.Cmd_ATA           at.o
    0x08000c58   0x08000c58   0x00000024   Code   RO         3919    i.Cmd_ATE           at.o
    0x08000c7c   0x08000c7c   0x0000001c   Code   RO         3920    i.Cmd_ATH           at.o
    0x08000c98   0x08000c98   0x00000020   Code   RO         3011    i.DHT11             dht11.o
    0x08000cb8   0x08000cb8   0x0000000c   Code   RO         4836    i.DMA2_Stream0_IRQHandler  stm32f4xx_it.o
    0x08000cc4   0x08000cc4   0x00000028   Code   RO         2809    i.DMA_CalcBaseAndBitshift  stm32f4xx_hal_dma.o
    0x08000cec   0x08000cec   0x00000054   Code   RO         2810    i.DMA_CheckFifoParam  stm32f4xx_hal_dma.o
    0x08000d40   0x08000d40   0x00000028   Code   RO         2811    i.DMA_SetConfig     stm32f4xx_hal_dma.o
    0x08000d68   0x08000d68   0x00000038   Code   RO         4837    i.EXTI15_10_IRQHandler  stm32f4xx_it.o
    0x08000da0   0x08000da0   0x00000048   Code   RO         4838    i.EXTI2_IRQHandler  stm32f4xx_it.o
    0x08000de8   0x08000de8   0x00000048   Code   RO         4839    i.EXTI3_IRQHandler  stm32f4xx_it.o
    0x08000e30   0x08000e30   0x00000040   Code   RO         4840    i.EXTI9_5_IRQHandler  stm32f4xx_it.o
    0x08000e70   0x08000e70   0x00000014   Code   RO         3092    i.E_pin             stm_my_lcd16x2.o
    0x08000e84   0x08000e84   0x0000014c   Code   RO         1163    i.HAL_ADC_ConfigChannel  stm32f4xx_hal_adc.o
    0x08000fd0   0x08000fd0   0x00000002   Code   RO         1164    i.HAL_ADC_ConvCpltCallback  stm32f4xx_hal_adc.o
    0x08000fd2   0x08000fd2   0x00000002   Code   RO         1165    i.HAL_ADC_ConvHalfCpltCallback  stm32f4xx_hal_adc.o
    0x08000fd4   0x08000fd4   0x00000002   Code   RO         1167    i.HAL_ADC_ErrorCallback  stm32f4xx_hal_adc.o
    0x08000fd6   0x08000fd6   0x00000054   Code   RO         1172    i.HAL_ADC_Init      stm32f4xx_hal_adc.o
    0x0800102a   0x0800102a   0x00000002   PAD
    0x0800102c   0x0800102c   0x000000bc   Code   RO         4764    i.HAL_ADC_MspInit   stm32f4xx_hal_msp.o
    0x080010e8   0x080010e8   0x00000100   Code   RO         1179    i.HAL_ADC_Start_DMA  stm32f4xx_hal_adc.o
    0x080011e8   0x080011e8   0x00000024   Code   RO         2813    i.HAL_DMA_Abort_IT  stm32f4xx_hal_dma.o
    0x0800120c   0x0800120c   0x000001a8   Code   RO         2817    i.HAL_DMA_IRQHandler  stm32f4xx_hal_dma.o
    0x080013b4   0x080013b4   0x000000d4   Code   RO         2818    i.HAL_DMA_Init      stm32f4xx_hal_dma.o
    0x08001488   0x08001488   0x00000078   Code   RO         2822    i.HAL_DMA_Start_IT  stm32f4xx_hal_dma.o
    0x08001500   0x08001500   0x0000001c   Code   RO          279    i.HAL_Delay         stm32f4xx_hal.o
    0x0800151c   0x0800151c   0x00000002   Code   RO         2624    i.HAL_GPIO_EXTI_Callback  stm32f4xx_hal_gpio.o
    0x0800151e   0x0800151e   0x00000002   PAD
    0x08001520   0x08001520   0x00000018   Code   RO         2625    i.HAL_GPIO_EXTI_IRQHandler  stm32f4xx_hal_gpio.o
    0x08001538   0x08001538   0x00000188   Code   RO         2626    i.HAL_GPIO_Init     stm32f4xx_hal_gpio.o
    0x080016c0   0x080016c0   0x0000000a   Code   RO         2628    i.HAL_GPIO_ReadPin  stm32f4xx_hal_gpio.o
    0x080016ca   0x080016ca   0x0000000a   Code   RO         2630    i.HAL_GPIO_WritePin  stm32f4xx_hal_gpio.o
    0x080016d4   0x080016d4   0x0000000c   Code   RO          285    i.HAL_GetTick       stm32f4xx_hal.o
    0x080016e0   0x080016e0   0x00000010   Code   RO          287    i.HAL_IncTick       stm32f4xx_hal.o
    0x080016f0   0x080016f0   0x00000034   Code   RO          288    i.HAL_Init          stm32f4xx_hal.o
    0x08001724   0x08001724   0x00000028   Code   RO          289    i.HAL_InitTick      stm32f4xx_hal.o
    0x0800174c   0x0800174c   0x00000068   Code   RO         4765    i.HAL_MspInit       stm32f4xx_hal_msp.o
    0x080017b4   0x080017b4   0x00000016   Code   RO         2003    i.HAL_NVIC_EnableIRQ  stm32f4xx_hal_cortex.o
    0x080017ca   0x080017ca   0x00000002   PAD
    0x080017cc   0x080017cc   0x00000040   Code   RO         2009    i.HAL_NVIC_SetPriority  stm32f4xx_hal_cortex.o
    0x0800180c   0x0800180c   0x00000024   Code   RO         2010    i.HAL_NVIC_SetPriorityGrouping  stm32f4xx_hal_cortex.o
    0x08001830   0x08001830   0x00000018   Code   RO         2696    i.HAL_PWR_EnableBkUpAccess  stm32f4xx_hal_pwr.o
    0x08001848   0x08001848   0x00000168   Code   RO            6    i.HAL_RCCEx_PeriphCLKConfig  stm32f4xx_hal_rcc_ex.o
    0x080019b0   0x080019b0   0x0000017c   Code   RO         1057    i.HAL_RCC_ClockConfig  stm32f4xx_hal_rcc.o
    0x08001b2c   0x08001b2c   0x0000000c   Code   RO         1062    i.HAL_RCC_GetHCLKFreq  stm32f4xx_hal_rcc.o
    0x08001b38   0x08001b38   0x00000030   Code   RO         1064    i.HAL_RCC_GetPCLK1Freq  stm32f4xx_hal_rcc.o
    0x08001b68   0x08001b68   0x00000030   Code   RO         1065    i.HAL_RCC_GetPCLK2Freq  stm32f4xx_hal_rcc.o
    0x08001b98   0x08001b98   0x00000070   Code   RO         1066    i.HAL_RCC_GetSysClockFreq  stm32f4xx_hal_rcc.o
    0x08001c08   0x08001c08   0x00000314   Code   RO         1069    i.HAL_RCC_OscConfig  stm32f4xx_hal_rcc.o
    0x08001f1c   0x08001f1c   0x0000000a   Code   RO         2259    i.HAL_RTCEx_BKUPRead  stm32f4xx_hal_rtc_ex.o
    0x08001f26   0x08001f26   0x0000000a   Code   RO         2260    i.HAL_RTCEx_BKUPWrite  stm32f4xx_hal_rtc_ex.o
    0x08001f30   0x08001f30   0x00000044   Code   RO         2491    i.HAL_RTC_GetDate   stm32f4xx_hal_rtc.o
    0x08001f74   0x08001f74   0x00000058   Code   RO         2493    i.HAL_RTC_GetTime   stm32f4xx_hal_rtc.o
    0x08001fcc   0x08001fcc   0x0000009c   Code   RO         2494    i.HAL_RTC_Init      stm32f4xx_hal_rtc.o
    0x08002068   0x08002068   0x00000018   Code   RO         4767    i.HAL_RTC_MspInit   stm32f4xx_hal_msp.o
    0x08002080   0x08002080   0x000000d0   Code   RO         2500    i.HAL_RTC_SetDate   stm32f4xx_hal_rtc.o
    0x08002150   0x08002150   0x000000f0   Code   RO         2501    i.HAL_RTC_SetTime   stm32f4xx_hal_rtc.o
    0x08002240   0x08002240   0x00000036   Code   RO         2502    i.HAL_RTC_WaitForSynchro  stm32f4xx_hal_rtc.o
    0x08002276   0x08002276   0x00000018   Code   RO         2012    i.HAL_SYSTICK_CLKSourceConfig  stm32f4xx_hal_cortex.o
    0x0800228e   0x0800228e   0x00000002   Code   RO         2013    i.HAL_SYSTICK_Callback  stm32f4xx_hal_cortex.o
    0x08002290   0x08002290   0x00000028   Code   RO         2014    i.HAL_SYSTICK_Config  stm32f4xx_hal_cortex.o
    0x080022b8   0x080022b8   0x00000008   Code   RO         2015    i.HAL_SYSTICK_IRQHandler  stm32f4xx_hal_cortex.o
    0x080022c0   0x080022c0   0x00000002   Code   RO         1433    i.HAL_TIMEx_BreakCallback  stm32f4xx_hal_tim_ex.o
    0x080022c2   0x080022c2   0x00000002   Code   RO         1434    i.HAL_TIMEx_CommutationCallback  stm32f4xx_hal_tim_ex.o
    0x080022c4   0x080022c4   0x00000050   Code   RO         1450    i.HAL_TIMEx_MasterConfigSynchronization  stm32f4xx_hal_tim_ex.o
    0x08002314   0x08002314   0x00000036   Code   RO          427    i.HAL_TIM_Base_Init  stm32f4xx_hal_tim.o
    0x0800234a   0x0800234a   0x00000002   PAD
    0x0800234c   0x0800234c   0x00000050   Code   RO         4769    i.HAL_TIM_Base_MspInit  stm32f4xx_hal_msp.o
    0x0800239c   0x0800239c   0x0000001a   Code   RO          430    i.HAL_TIM_Base_Start  stm32f4xx_hal_tim.o
    0x080023b6   0x080023b6   0x00000018   Code   RO          432    i.HAL_TIM_Base_Start_IT  stm32f4xx_hal_tim.o
    0x080023ce   0x080023ce   0x0000002a   Code   RO          435    i.HAL_TIM_Base_Stop_IT  stm32f4xx_hal_tim.o
    0x080023f8   0x080023f8   0x000000f2   Code   RO          436    i.HAL_TIM_ConfigClockSource  stm32f4xx_hal_tim.o
    0x080024ea   0x080024ea   0x00000002   Code   RO          456    i.HAL_TIM_IC_CaptureCallback  stm32f4xx_hal_tim.o
    0x080024ec   0x080024ec   0x00000166   Code   RO          469    i.HAL_TIM_IRQHandler  stm32f4xx_hal_tim.o
    0x08002652   0x08002652   0x00000002   Code   RO          472    i.HAL_TIM_OC_DelayElapsedCallback  stm32f4xx_hal_tim.o
    0x08002654   0x08002654   0x00000002   Code   RO          499    i.HAL_TIM_PWM_PulseFinishedCallback  stm32f4xx_hal_tim.o
    0x08002656   0x08002656   0x00000002   Code   RO          506    i.HAL_TIM_PeriodElapsedCallback  stm32f4xx_hal_tim.o
    0x08002658   0x08002658   0x00000002   Code   RO          510    i.HAL_TIM_TriggerCallback  stm32f4xx_hal_tim.o
    0x0800265a   0x0800265a   0x00000002   Code   RO         1693    i.HAL_UART_ErrorCallback  stm32f4xx_hal_uart.o
    0x0800265c   0x0800265c   0x00000110   Code   RO         1696    i.HAL_UART_IRQHandler  stm32f4xx_hal_uart.o
    0x0800276c   0x0800276c   0x00000062   Code   RO         1697    i.HAL_UART_Init     stm32f4xx_hal_uart.o
    0x080027ce   0x080027ce   0x00000002   PAD
    0x080027d0   0x080027d0   0x0000005c   Code   RO         4771    i.HAL_UART_MspInit  stm32f4xx_hal_msp.o
    0x0800282c   0x0800282c   0x00000048   Code   RO         1702    i.HAL_UART_Receive_IT  stm32f4xx_hal_uart.o
    0x08002874   0x08002874   0x0000011c   Code   RO         4239    i.HAL_UART_RxCpltCallback  fibocom.o
    0x08002990   0x08002990   0x0000003e   Code   RO         1707    i.HAL_UART_Transmit_IT  stm32f4xx_hal_uart.o
    0x080029ce   0x080029ce   0x00000002   Code   RO         1708    i.HAL_UART_TxCpltCallback  stm32f4xx_hal_uart.o
    0x080029d0   0x080029d0   0x0000003c   Code   RO         3930    i.IPR               at.o
    0x08002a0c   0x08002a0c   0x00000328   Code   RO         4314    i.Inicializacion    funcioninicializacion.o
    0x08002d34   0x08002d34   0x00000020   Code   RO         3094    i.LCD_TwoLines      stm_my_lcd16x2.o
    0x08002d54   0x08002d54   0x00000084   Code   RO         3095    i.LCD_begin4BIT     stm_my_lcd16x2.o
    0x08002dd8   0x08002dd8   0x00000018   Code   RO         3098    i.LCD_clear         stm_my_lcd16x2.o
    0x08002df0   0x08002df0   0x00000020   Code   RO         3104    i.LCD_noCursor      stm_my_lcd16x2.o
    0x08002e10   0x08002e10   0x00000028   Code   RO         3107    i.LCD_setCursor     stm_my_lcd16x2.o
    0x08002e38   0x08002e38   0x00000014   Code   RO         3110    i.LCD_writeChar     stm_my_lcd16x2.o
    0x08002e4c   0x08002e4c   0x00000014   Code   RO         3937    i.MSJ               at.o
    0x08002e60   0x08002e60   0x000000b4   Code   RO         4566    i.MX_ADC1_Init      main.o
    0x08002f14   0x08002f14   0x00000144   Code   RO         4567    i.MX_GPIO_Init      main.o
    0x08003058   0x08003058   0x000000a8   Code   RO         4568    i.MX_RTC_Init       main.o
    0x08003100   0x08003100   0x00000054   Code   RO         4569    i.MX_TIM2_Init      main.o
    0x08003154   0x08003154   0x00000050   Code   RO         4570    i.MX_TIM5_Init      main.o
    0x080031a4   0x080031a4   0x00000038   Code   RO         4241    i.Module_Write_str  fibocom.o
    0x080031dc   0x080031dc   0x00000020   Code   RO         2016    i.NVIC_SetPriority  stm32f4xx_hal_cortex.o
    0x080031fc   0x080031fc   0x00000008   Code   RO         4571    i.OneWire_Init      main.o
    0x08003204   0x08003204   0x00000244   Code   RO         4497    i.POSTHTTP          posthttp.o
    0x08003448   0x08003448   0x00000002   Code   RO         4841    i.PendSV_Handler    stm32f4xx_it.o
    0x0800344a   0x0800344a   0x00000002   Code   RO         4842    i.RCC_IRQHandler    stm32f4xx_it.o
    0x0800344c   0x0800344c   0x00000014   Code   RO         3111    i.RS_pin            stm_my_lcd16x2.o
    0x08003460   0x08003460   0x00000012   Code   RO         2503    i.RTC_Bcd2ToByte    stm32f4xx_hal_rtc.o
    0x08003472   0x08003472   0x00000016   Code   RO         2504    i.RTC_ByteToBcd2    stm32f4xx_hal_rtc.o
    0x08003488   0x08003488   0x0000003a   Code   RO         2505    i.RTC_EnterInitMode  stm32f4xx_hal_rtc.o
    0x080034c2   0x080034c2   0x00000002   PAD
    0x080034c4   0x080034c4   0x000000e8   Code   RO         4572    i.ReportTemperature  main.o
    0x080035ac   0x080035ac   0x0000004c   Code   RO         3939    i.SAPBR             at.o
    0x080035f8   0x080035f8   0x0000007c   Code   RO         3940    i.SAPBRCONFG        at.o
    0x08003674   0x08003674   0x0000076c   Code   RO         4410    i.SMSquery          responsesms.o
    0x08003de0   0x08003de0   0x00000002   Code   RO         4843    i.SVC_Handler       stm32f4xx_it.o
    0x08003de2   0x08003de2   0x00000002   PAD
    0x08003de4   0x08003de4   0x00000030   Code   RO         4438    i.Send              sendmessage.o
    0x08003e14   0x08003e14   0x0000005c   Code   RO         4573    i.SendByte          main.o
    0x08003e70   0x08003e70   0x00000054   Code   RO         4574    i.SendInitialization  main.o
    0x08003ec4   0x08003ec4   0x0000000e   Code   RO         4844    i.SysTick_Handler   stm32f4xx_it.o
    0x08003ed2   0x08003ed2   0x00000002   PAD
    0x08003ed4   0x08003ed4   0x000000b8   Code   RO         4575    i.SystemClock_Config  main.o
    0x08003f8c   0x08003f8c   0x00000054   Code   RO         4529    i.SystemInit        system_stm32f4xx.o
    0x08003fe0   0x08003fe0   0x00000070   Code   RO         4845    i.TIM2_IRQHandler   stm32f4xx_it.o
    0x08004050   0x08004050   0x00000090   Code   RO          511    i.TIM_Base_SetConfig  stm32f4xx_hal_tim.o
    0x080040e0   0x080040e0   0x00000014   Code   RO          518    i.TIM_ETR_SetConfig  stm32f4xx_hal_tim.o
    0x080040f4   0x080040f4   0x00000010   Code   RO          519    i.TIM_ITRx_SetConfig  stm32f4xx_hal_tim.o
    0x08004104   0x08004104   0x00000022   Code   RO          525    i.TIM_TI1_ConfigInputStage  stm32f4xx_hal_tim.o
    0x08004126   0x08004126   0x00000024   Code   RO          527    i.TIM_TI2_ConfigInputStage  stm32f4xx_hal_tim.o
    0x0800414a   0x0800414a   0x00000010   Code   RO         1710    i.UART_DMAAbortOnError  stm32f4xx_hal_uart.o
    0x0800415a   0x0800415a   0x0000001c   Code   RO         1720    i.UART_EndRxTransfer  stm32f4xx_hal_uart.o
    0x08004176   0x08004176   0x0000008c   Code   RO         1722    i.UART_Receive_IT   stm32f4xx_hal_uart.o
    0x08004202   0x08004202   0x00000002   PAD
    0x08004204   0x08004204   0x000002ac   Code   RO         1723    i.UART_SetConfig    stm32f4xx_hal_uart.o
    0x080044b0   0x080044b0   0x00000062   Code   RO         1724    i.UART_Transmit_IT  stm32f4xx_hal_uart.o
    0x08004512   0x08004512   0x00000002   PAD
    0x08004514   0x08004514   0x0000000c   Code   RO         4846    i.USART6_IRQHandler  stm32f4xx_it.o
    0x08004520   0x08004520   0x00000002   Code   RO         4576    i._Error_Handler    main.o
    0x08004522   0x08004522   0x00000002   PAD
    0x08004524   0x08004524   0x00000030   Code   RO         5125    i.__0snprintf$6     mc_w.l(printf6.o)
    0x08004554   0x08004554   0x00000028   Code   RO         5126    i.__0sprintf$6      mc_w.l(printf6.o)
    0x0800457c   0x0800457c   0x0000000e   Code   RO         5340    i.__scatterload_copy  mc_w.l(handlers.o)
    0x0800458a   0x0800458a   0x00000002   Code   RO         5341    i.__scatterload_null  mc_w.l(handlers.o)
    0x0800458c   0x0800458c   0x0000000e   Code   RO         5342    i.__scatterload_zeroinit  mc_w.l(handlers.o)
    0x0800459a   0x0800459a   0x00000002   PAD
    0x0800459c   0x0800459c   0x000002f0   Code   RO         5131    i._printf_core      mc_w.l(printf6.o)
    0x0800488c   0x0800488c   0x00000024   Code   RO         5132    i._printf_post_padding  mc_w.l(printf6.o)
    0x080048b0   0x080048b0   0x0000002e   Code   RO         5133    i._printf_pre_padding  mc_w.l(printf6.o)
    0x080048de   0x080048de   0x00000016   Code   RO         5134    i._snputc           mc_w.l(printf6.o)
    0x080048f4   0x080048f4   0x0000000a   Code   RO         5135    i._sputc            mc_w.l(printf6.o)
    0x080048fe   0x080048fe   0x00000002   PAD
    0x08004900   0x08004900   0x00000124   Code   RO         3591    i.controlAmbiental  controlambiental.o
    0x08004a24   0x08004a24   0x000000f0   Code   RO         3646    i.controlHumAmb     humamb.o
    0x08004b14   0x08004b14   0x000000c0   Code   RO         3684    i.controlHumComp    humcomp.o
    0x08004bd4   0x08004bd4   0x00000168   Code   RO         3793    i.controlTempAmb    tempamb.o
    0x08004d3c   0x08004d3c   0x000000c8   Code   RO         3820    i.controlTempComp   tempcomp.o
    0x08004e04   0x08004e04   0x00000030   Code   RO         4577    i.crc8              main.o
    0x08004e34   0x08004e34   0x000001a8   Code   RO         3848    i.cultivation       ctrlfase.o
    0x08004fdc   0x08004fdc   0x000000a8   Code   RO         4578    i.dateRTC           main.o
    0x08005084   0x08005084   0x00000018   Code   RO         4579    i.delay_us          main.o
    0x0800509c   0x0800509c   0x00000018   Code   RO         3012    i.digitalRead       dht11.o
    0x080050b4   0x080050b4   0x00000014   Code   RO         3013    i.digitalWrite      dht11.o
    0x080050c8   0x080050c8   0x00000036   Code   RO         4580    i.disp_enviar       main.o
    0x080050fe   0x080050fe   0x00000014   Code   RO         3631    i.fase              fase.o
    0x08005112   0x08005112   0x00000002   PAD
    0x08005114   0x08005114   0x00000018   Code   RO         4243    i.fibocom_bsp_init  fibocom.o
    0x0800512c   0x0800512c   0x00000264   Code   RO         3711    i.getHumTemp        humtemp.o
    0x08005390   0x08005390   0x00000024   Code   RO         3735    i.getLight          light.o
    0x080053b4   0x080053b4   0x000000ac   Code   RO         3764    i.getSoilHumidity   soilhumidity.o
    0x08005460   0x08005460   0x000001a4   Code   RO         4379    i.initGPRS          confggprs.o
    0x08005604   0x08005604   0x000000ec   Code   RO         4348    i.initGSM           confggsm.o
    0x080056f0   0x080056f0   0x000011fc   Code   RO         4581    i.main              main.o
    0x080068ec   0x080068ec   0x0000000c   Code   RO         4582    i.micros            main.o
    0x080068f8   0x080068f8   0x000000f0   Code   RO         3264    i.mnu_HumTemp_periodica  menu.o
    0x080069e8   0x080069e8   0x000000dc   Code   RO         3265    i.mnu_SoilHumidity_periodica  menu.o
    0x08006ac4   0x08006ac4   0x00000038   Code   RO         3266    i.mnu_cambio_seleccion  menu.o
    0x08006afc   0x08006afc   0x00000044   Code   RO         3267    i.mnu_confirmar_clave  menu.o
    0x08006b40   0x08006b40   0x00000044   Code   RO         3268    i.mnu_confirmar_guardar_flag  menu.o
    0x08006b84   0x08006b84   0x00000128   Code   RO         3269    i.mnu_dibujar_elemento_menu  menu.o
    0x08006cac   0x08006cac   0x0000009c   Code   RO         3270    i.mnu_dibujar_flag  menu.o
    0x08006d48   0x08006d48   0x000000b0   Code   RO         3271    i.mnu_dibujar_numero_clave  menu.o
    0x08006df8   0x08006df8   0x00000002   Code   RO         3272    i.mnu_dummy_function  menu.o
    0x08006dfa   0x08006dfa   0x00000002   PAD
    0x08006dfc   0x08006dfc   0x0000002c   Code   RO         3273    i.mnu_dummy_function_ger  menu.o
    0x08006e28   0x08006e28   0x0000003c   Code   RO         3274    i.mnu_dummy_function_hum  menu.o
    0x08006e64   0x08006e64   0x0000002c   Code   RO         3275    i.mnu_dummy_function_indfruct  menu.o
    0x08006e90   0x08006e90   0x0000004c   Code   RO         3276    i.mnu_dummy_function_light  menu.o
    0x08006edc   0x08006edc   0x0000002c   Code   RO         3277    i.mnu_dummy_function_no  menu.o
    0x08006f08   0x08006f08   0x0000002c   Code   RO         3278    i.mnu_dummy_function_pfruct  menu.o
    0x08006f34   0x08006f34   0x0000002c   Code   RO         3279    i.mnu_dummy_function_plfruct  menu.o
    0x08006f60   0x08006f60   0x0000002c   Code   RO         3280    i.mnu_dummy_function_restfruct  menu.o
    0x08006f8c   0x08006f8c   0x00000050   Code   RO         3281    i.mnu_dummy_function_tank  menu.o
    0x08006fdc   0x08006fdc   0x00000038   Code   RO         3282    i.mnu_dummy_function_temp  menu.o
    0x08007014   0x08007014   0x00000014   Code   RO         3283    i.mnu_efectos_clave  menu.o
    0x08007028   0x08007028   0x00000014   Code   RO         3285    i.mnu_efectos_fijar_flag  menu.o
    0x0800703c   0x0800703c   0x0000001c   Code   RO         3286    i.mnu_efectos_mostrar_msj  menu.o
    0x08007058   0x08007058   0x00000010   Code   RO         3287    i.mnu_ejecutar_funcion  menu.o
    0x08007068   0x08007068   0x00000010   Code   RO         3288    i.mnu_ejecutar_funcion_periodica  menu.o
    0x08007078   0x08007078   0x000000b4   Code   RO         3291    i.mnu_eventos_clave  menu.o
    0x0800712c   0x0800712c   0x00000098   Code   RO         3292    i.mnu_eventos_confirmar_clave  menu.o
    0x080071c4   0x080071c4   0x00000050   Code   RO         3293    i.mnu_eventos_confirmar_guardar_flag  menu.o
    0x08007214   0x08007214   0x00000080   Code   RO         3294    i.mnu_eventos_fijar_flag  menu.o
    0x08007294   0x08007294   0x00000014   Code   RO         3295    i.mnu_eventos_mostrar_msj  menu.o
    0x080072a8   0x080072a8   0x00000064   Code   RO         3296    i.mnu_eventos_submenu  menu.o
    0x0800730c   0x0800730c   0x000000a0   Code   RO         3297    i.mnu_fijar_clave   menu.o
    0x080073ac   0x080073ac   0x00000014   Code   RO         3298    i.mnu_fijar_clave_init  menu.o
    0x080073c0   0x080073c0   0x00000054   Code   RO         3299    i.mnu_fijar_flag    menu.o
    0x08007414   0x08007414   0x00000024   Code   RO         3300    i.mnu_guardar_flag  menu.o
    0x08007438   0x08007438   0x00000090   Code   RO         3301    i.mnu_levelTank_periodica  menu.o
    0x080074c8   0x080074c8   0x00000090   Code   RO         3302    i.mnu_light_periodica  menu.o
    0x08007558   0x08007558   0x00000040   Code   RO         3303    i.mnu_mostrar_menu  menu.o
    0x08007598   0x08007598   0x00000010   Code   RO         3304    i.mnu_mostrar_menu_anterior  menu.o
    0x080075a8   0x080075a8   0x0000005c   Code   RO         3305    i.mnu_mostrar_menu_pass  menu.o
    0x08007604   0x08007604   0x00000034   Code   RO         3306    i.mnu_mostrar_msj   menu.o
    0x08007638   0x08007638   0x000000b4   Code   RO         3307    i.mnu_procesar_clave  menu.o
    0x080076ec   0x080076ec   0x00000018   Code   RO         3308    i.mnu_salir         menu.o
    0x08007704   0x08007704   0x00000028   Code   RO         3016    i.pinMode           dht11.o
    0x0800772c   0x0800772c   0x0000009c   Code   RO         3017    i.read              dht11.o
    0x080077c8   0x080077c8   0x00000044   Code   RO         3018    i.readByte          dht11.o
    0x0800780c   0x0800780c   0x00000028   Code   RO         3113    i.setDataLength     stm_my_lcd16x2.o
    0x08007834   0x08007834   0x0000004a   Code   RO         3114    i.switchMode        stm_my_lcd16x2.o
    0x0800787e   0x0800787e   0x00000002   PAD
    0x08007880   0x08007880   0x000000f4   Code   RO         3867    i.tempSensor        tempmcu.o
    0x08007974   0x08007974   0x00000080   Code   RO         4583    i.timeRTC           main.o
    0x080079f4   0x080079f4   0x00000018   Code   RO         3019    i.waitFor           dht11.o
    0x08007a0c   0x08007a0c   0x0000003c   Code   RO         3020    i.waitForT          dht11.o
    0x08007a48   0x08007a48   0x000001f0   Code   RO         3115    i.writeCommand      stm_my_lcd16x2.o
    0x08007c38   0x08007c38   0x00000008   Data   RO         2824    .constdata          stm32f4xx_hal_dma.o
    0x08007c40   0x08007c40   0x00000010   Data   RO         4530    .constdata          system_stm32f4xx.o
    0x08007c50   0x08007c50   0x00000008   Data   RO         4531    .constdata          system_stm32f4xx.o
    0x08007c58   0x08007c58   0x00000039   Data   RO         3310    .conststring        menu.o
    0x08007c91   0x08007c91   0x00000003   PAD
    0x08007c94   0x08007c94   0x00000038   Data   RO         3311    .conststring        menu.o
    0x08007ccc   0x08007ccc   0x00000049   Data   RO         3312    .conststring        menu.o
    0x08007d15   0x08007d15   0x00000003   PAD
    0x08007d18   0x08007d18   0x0000002c   Data   RO         3313    .conststring        menu.o
    0x08007d44   0x08007d44   0x0000005d   Data   RO         3314    .conststring        menu.o
    0x08007da1   0x08007da1   0x00000003   PAD
    0x08007da4   0x08007da4   0x00000020   Data   RO         5338    Region$$Table       anon$$obj.o


    Execution Region RW_IRAM1 (Exec base: 0x20000000, Load base: 0x08007dc4, Size: 0x000015e0, Max: 0x00018000, ABSOLUTE, COMPRESSED[0x000002d4])

    Exec Addr    Load Addr    Size         Type   Attr      Idx    E Section Name        Object

    0x20000000   COMPRESSED   0x00000004   Data   RW          294    .data               stm32f4xx_hal.o
    0x20000004   COMPRESSED   0x00000008   Data   RW         3021    .data               dht11.o
    0x2000000c   COMPRESSED   0x00000028   Data   RW         3116    .data               stm_my_lcd16x2.o
    0x20000034   COMPRESSED   0x000000b4   Data   RW         3315    .data               menu.o
    0x200000e8   COMPRESSED   0x0000003c   Data   RW         3316    .data               menu.o
    0x20000124   COMPRESSED   0x00000054   Data   RW         3317    .data               menu.o
    0x20000178   COMPRESSED   0x00000048   Data   RW         3318    .data               menu.o
    0x200001c0   COMPRESSED   0x00000060   Data   RW         3319    .data               menu.o
    0x20000220   COMPRESSED   0x00000014   Data   RW         3647    .data               humamb.o
    0x20000234   COMPRESSED   0x00000014   Data   RW         3685    .data               humcomp.o
    0x20000248   COMPRESSED   0x00000014   Data   RW         3794    .data               tempamb.o
    0x2000025c   COMPRESSED   0x00000014   Data   RW         3821    .data               tempcomp.o
    0x20000270   COMPRESSED   0x0000000b   Data   RW         3944    .data               at.o
    0x2000027b   COMPRESSED   0x00000001   Data   RW         4248    .data               fibocom.o
    0x2000027c   COMPRESSED   0x00000002   Data   RW         4315    .data               funcioninicializacion.o
    0x2000027e   COMPRESSED   0x00000002   Data   RW         4349    .data               confggsm.o
    0x20000280   COMPRESSED   0x00000002   Data   RW         4380    .data               confggprs.o
    0x20000282   COMPRESSED   0x00000001   Data   RW         4498    .data               posthttp.o
    0x20000283   COMPRESSED   0x00000001   PAD
    0x20000284   COMPRESSED   0x00000004   Data   RW         4532    .data               system_stm32f4xx.o
    0x20000288   COMPRESSED   0x000002cc   Data   RW         4588    .data               main.o
    0x20000554   COMPRESSED   0x00000004   Data   RW         4589    .data               main.o
    0x20000558   COMPRESSED   0x00000004   Data   RW         4590    .data               main.o
    0x2000055c   COMPRESSED   0x00000001   Data   RW         4594    .data               main.o
    0x2000055d   COMPRESSED   0x00000001   Data   RW         4595    .data               main.o
    0x2000055e   COMPRESSED   0x00000001   Data   RW         4596    .data               main.o
    0x2000055f   COMPRESSED   0x00000001   PAD
    0x20000560   COMPRESSED   0x00000002   Data   RW         4597    .data               main.o
    0x20000562   COMPRESSED   0x0000000e   Data   RW         4599    .data               main.o
    0x20000570   COMPRESSED   0x0000000e   Data   RW         4600    .data               main.o
    0x2000057e   COMPRESSED   0x00000035   Data   RW         4601    .data               main.o
    0x200005b3   COMPRESSED   0x0000002d   Data   RW         4602    .data               main.o
    0x200005e0   COMPRESSED   0x00000022   Data   RW         4603    .data               main.o
    0x20000602   COMPRESSED   0x00000026   Data   RW         4604    .data               main.o
    0x20000628   COMPRESSED   0x00000026   Data   RW         4605    .data               main.o
    0x2000064e   COMPRESSED   0x00000022   Data   RW         4606    .data               main.o
    0x20000670   COMPRESSED   0x0000004e   Data   RW         4607    .data               main.o
    0x200006be   COMPRESSED   0x00000001   Data   RW         4608    .data               main.o
    0x200006bf   COMPRESSED   0x00000001   Data   RW         4609    .data               main.o
    0x200006c0   COMPRESSED   0x00000001   Data   RW         4610    .data               main.o
    0x200006c1   COMPRESSED   0x00000001   Data   RW         4611    .data               main.o
    0x200006c2   COMPRESSED   0x00000001   Data   RW         4612    .data               main.o
    0x200006c3   COMPRESSED   0x00000001   Data   RW         4613    .data               main.o
    0x200006c4   COMPRESSED   0x00000001   Data   RW         4614    .data               main.o
    0x200006c5   COMPRESSED   0x00000001   Data   RW         4615    .data               main.o
    0x200006c6   COMPRESSED   0x00000001   Data   RW         4616    .data               main.o
    0x200006c7   COMPRESSED   0x00000001   Data   RW         4617    .data               main.o
    0x200006c8   COMPRESSED   0x00000001   Data   RW         4618    .data               main.o
    0x200006c9   COMPRESSED   0x00000001   Data   RW         4619    .data               main.o
    0x200006ca   COMPRESSED   0x00000002   Data   RW         4620    .data               main.o
    0x200006cc        -       0x00000080   Zero   RW         3309    .bss                menu.o
    0x2000074c        -       0x00000a30   Zero   RW         4584    .bss                main.o
    0x2000117c        -       0x00000060   Zero   RW         4585    .bss                main.o
    0x200011dc   COMPRESSED   0x00000004   PAD
    0x200011e0        -       0x00000400   Zero   RW         4921    STACK               startup_stm32f401xe.o


==============================================================================

Image component sizes


      Code (inc. data)   RO Data    RW Data    ZI Data      Debug   Object Name

      1364        390          0         11          0      15047   at.o
       420         72          0          2          0       1789   confggprs.o
       236         20          0          2          0       1621   confggsm.o
       292         30          0          0          0        767   controlambiental.o
       424         18          0          0          0       1298   ctrlfase.o
       424         42          0          8          0       6214   dht11.o
        20          0          0          0          0        539   fase.o
       364         40          0          1          0       3322   fibocom.o
       808         36          0          2          0       2373   funcioninicializacion.o
       240         44          0         20          0       1901   humamb.o
       192         26          0         20          0       1459   humcomp.o
       612        160          0          0          0        985   humtemp.o
        36          6          0          0          0        667   light.o
      6476        418          0       1091       2704      21561   main.o
      3594       1064        323        492        128      31296   menu.o
       580        116          0          1          0       2224   posthttp.o
      1900         92          0          0          0       2703   responsesms.o
        48          6          0          0          0        643   sendmessage.o
       172         32          0          0          0        762   soilhumidity.o
        36          8        404          0       1024        832   startup_stm32f401xe.o
       148         22          0          4          0       4619   stm32f4xx_hal.o
      1108         52          0          0          0       7657   stm32f4xx_hal_adc.o
       228         14          0          0          0      32397   stm32f4xx_hal_cortex.o
       956         22          8          0          0       6702   stm32f4xx_hal_dma.o
       438         40          0          0          0       4403   stm32f4xx_hal_gpio.o
       488         88          0          0          0       3664   stm32f4xx_hal_msp.o
        24          4          0          0          0        575   stm32f4xx_hal_pwr.o
      1388         76          0          0          0       5852   stm32f4xx_hal_rcc.o
       360         26          0          0          0     442840   stm32f4xx_hal_rcc_ex.o
       912         26          0          0          0       7760   stm32f4xx_hal_rtc.o
        20          0          0          0          0       1807   stm32f4xx_hal_rtc_ex.o
      1006         30          0          0          0      12083   stm32f4xx_hal_tim.o
        84          0          0          0          0       2526   stm32f4xx_hal_tim_ex.o
      1474         14          0          0          0       8818   stm32f4xx_hal_uart.o
       420        104          0          0          0       5956   stm32f4xx_it.o
       930         38          0         40          0       8066   stm_my_lcd16x2.o
        84         18         24          4          0       1243   system_stm32f4xx.o
       360         74          0         20          0       1398   tempamb.o
       200         26          0         20          0       1420   tempcomp.o
       244         66          0          0          0        633   tempmcu.o

    ----------------------------------------------------------------------
     29138       3360        800       1740       3860     658422   Object Totals
         0          0         32          0          0          0   (incl. Generated)
        28          0          9          2          4          0   (incl. Padding)

    ----------------------------------------------------------------------

      Code (inc. data)   RO Data    RW Data    ZI Data      Debug   Library Member Name

        94          0          0          0          0          0   __dclz77c.o
         0          0          0          0          0          0   entry.o
         0          0          0          0          0          0   entry10a.o
         0          0          0          0          0          0   entry11a.o
         8          4          0          0          0          0   entry2.o
         4          0          0          0          0          0   entry5.o
         0          0          0          0          0          0   entry7b.o
         0          0          0          0          0          0   entry8b.o
         8          4          0          0          0          0   entry9a.o
        30          0          0          0          0          0   handlers.o
        36          8          0          0          0         68   init.o
         0          0          0          0          0          0   iusefp.o
        30          0          0          0          0         68   llshl.o
        36          0          0          0          0         68   llsshr.o
        32          0          0          0          0         68   llushr.o
        26          0          0          0          0         80   memcmp.o
        36          0          0          0          0         68   memcpya.o
        36          0          0          0          0        108   memseta.o
       954         14          0          0          0        572   printf6.o
        24          0          0          0          0         68   strcat.o
        18          0          0          0          0         68   strcpy.o
        14          0          0          0          0         68   strlen.o
        44          0          0          0          0         80   uidiv.o
       334          0          0          0          0        148   dadd.o
       186          0          0          0          0        176   depilogue.o
        50          0          0          0          0         76   dfixui.o
        26          0          0          0          0         76   dfltui.o
       228          0          0          0          0         96   dmul.o

    ----------------------------------------------------------------------
      2258         30          0          0          0       1956   Library Totals
         4          0          0          0          0          0   (incl. Padding)

    ----------------------------------------------------------------------

      Code (inc. data)   RO Data    RW Data    ZI Data      Debug   Library Name

      1430         30          0          0          0       1384   mc_w.l
       824          0          0          0          0        572   mf_w.l

    ----------------------------------------------------------------------
      2258         30          0          0          0       1956   Library Totals

    ----------------------------------------------------------------------

==============================================================================


      Code (inc. data)   RO Data    RW Data    ZI Data      Debug   

     31396       3390        800       1740       3860     638122   Grand Totals
     31396       3390        800        724       3860     638122   ELF Image Totals (compressed)
     31396       3390        800        724          0          0   ROM Totals

==============================================================================

    Total RO  Size (Code + RO Data)                32196 (  31.44kB)
    Total RW  Size (RW Data + ZI Data)              5600 (   5.47kB)
    Total ROM Size (Code + RO Data + RW Data)      32920 (  32.15kB)

==============================================================================

